Archive member included because of file (symbol)

arch/arm/cpu/arm1176/nxp2120/libnxp2120.a(cpu.o)
                              arch/arm/cpu/arm1176/start.o (lowlevel_init)
arch/arm/cpu/arm1176/nxp2120/libnxp2120.a(nxp2120.o)
                              arch/arm/cpu/arm1176/nxp2120/libnxp2120.a(cpu.o) (cpu_stat_info)
arch/arm/cpu/arm1176/nxp2120/libnxp2120.a(wakeup.o)
                              arch/arm/cpu/arm1176/nxp2120/libnxp2120.a(cpu.o) (cpu_mach_wakeup)
arch/arm/cpu/arm1176/nxp2120/libnxp2120.a(pm.o)
                              arch/arm/cpu/arm1176/nxp2120/libnxp2120.a(wakeup.o) (asm_cpu_wakeup)
arch/arm/cpu/arm1176/nxp2120/libnxp2120.a(serial.o)
                              arch/arm/cpu/arm1176/nxp2120/libnxp2120.a(wakeup.o) (serial_puts)
arch/arm/cpu/arm1176/nxp2120/libnxp2120.a(sdhc.o)
                              arch/arm/cpu/arm1176/nxp2120/libnxp2120.a(cpu.o) (sdhc_arch_init)
arch/arm/cpu/arm1176/nxp2120/libnxp2120.a(cmd.o)
                              (__u_boot_cmd_zimage)
arch/arm/cpu/arm1176/nxp2120/libnxp2120.a(cmd_udown.o)
                              (__u_boot_cmd_udown)
arch/arm/cpu/arm1176/nxp2120/libnxp2120.a(BootHeader.o)
                              arch/arm/cpu/arm1176/nxp2120/libnxp2120.a(cmd_udown.o) (ProcessBootHeader)
arch/arm/cpu/arm1176/nxp2120/libnxp2120.a(nx_alive.o)
                              arch/arm/cpu/arm1176/nxp2120/libnxp2120.a(nxp2120.o) (NX_ALIVE_Initialize)
arch/arm/cpu/arm1176/nxp2120/libnxp2120.a(nx_clkpwr.o)
                              arch/arm/cpu/arm1176/nxp2120/libnxp2120.a(nxp2120.o) (NX_CLKPWR_Initialize)
arch/arm/cpu/arm1176/nxp2120/libnxp2120.a(nx_dpc.o)
                              arch/arm/cpu/arm1176/nxp2120/libnxp2120.a(nxp2120.o) (NX_DPC_Initialize)
arch/arm/cpu/arm1176/nxp2120/libnxp2120.a(nx_gpio.o)
                              arch/arm/cpu/arm1176/nxp2120/libnxp2120.a(nxp2120.o) (NX_GPIO_Initialize)
arch/arm/cpu/arm1176/nxp2120/libnxp2120.a(nx_intc.o)
                              arch/arm/cpu/arm1176/nxp2120/libnxp2120.a(nxp2120.o) (NX_INTC_Initialize)
arch/arm/cpu/arm1176/nxp2120/libnxp2120.a(nx_mcud.o)
                              arch/arm/cpu/arm1176/nxp2120/libnxp2120.a(nxp2120.o) (NX_MCUD_Initialize)
arch/arm/cpu/arm1176/nxp2120/libnxp2120.a(nx_mcus.o)
                              arch/arm/cpu/arm1176/nxp2120/libnxp2120.a(nxp2120.o) (NX_MCUS_Initialize)
arch/arm/cpu/arm1176/nxp2120/libnxp2120.a(nx_mlc.o)
                              arch/arm/cpu/arm1176/nxp2120/libnxp2120.a(nxp2120.o) (NX_MLC_Initialize)
arch/arm/cpu/arm1176/nxp2120/libnxp2120.a(nx_pwm.o)
                              arch/arm/cpu/arm1176/nxp2120/libnxp2120.a(nxp2120.o) (NX_PWM_Initialize)
arch/arm/cpu/arm1176/nxp2120/libnxp2120.a(nx_sdhc.o)
                              arch/arm/cpu/arm1176/nxp2120/libnxp2120.a(sdhc.o) (NX_SDHC_Initialize)
arch/arm/cpu/arm1176/nxp2120/libnxp2120.a(nx_timer.o)
                              arch/arm/cpu/arm1176/nxp2120/libnxp2120.a(nxp2120.o) (NX_TIMER_Initialize)
arch/arm/cpu/arm1176/nxp2120/libnxp2120.a(nx_uart.o)
                              arch/arm/cpu/arm1176/nxp2120/libnxp2120.a(serial.o) (NX_UART_Initialize)
arch/arm/cpu/arm1176/nxp2120/libnxp2120.a(reset.o)
                              arch/arm/cpu/arm1176/nxp2120/libnxp2120.a(wakeup.o) (reset_cpu)
arch/arm/lib/libarm.a(board.o)
                              arch/arm/cpu/arm1176/start.o (start_armboot)
arch/arm/lib/libarm.a(interrupts.o)
                              arch/arm/lib/libarm.a(board.o) (enable_interrupts)
net/libnet.a(eth.o)           arch/arm/lib/libarm.a(board.o) (eth_initialize)
net/libnet.a(net.o)           arch/arm/lib/libarm.a(board.o) (copy_filename)
net/libnet.a(nfs.o)           net/libnet.a(net.o) (NfsStart)
net/libnet.a(rarp.o)          net/libnet.a(net.o) (RarpRequest)
net/libnet.a(tftp.o)          net/libnet.a(net.o) (TftpStart)
net/libnet.a(bootp.o)         net/libnet.a(net.o) (BootpRequest)
drivers/mmc/libmmc.a(mmc.o)   arch/arm/cpu/arm1176/nxp2120/libnxp2120.a(sdhc.o) (mmc_register)
drivers/mtd/nand/libnand.a(nand.o)
                              arch/arm/lib/libarm.a(board.o) (nand_init)
drivers/mtd/nand/libnand.a(nand_base.o)
                              drivers/mtd/nand/libnand.a(nand.o) (nand_scan)
drivers/mtd/nand/libnand.a(nand_bbt.o)
                              drivers/mtd/nand/libnand.a(nand_base.o) (nand_isbad_bbt)
drivers/mtd/nand/libnand.a(nand_ecc.o)
                              drivers/mtd/nand/libnand.a(nand_base.o) (nand_calculate_ecc)
drivers/mtd/nand/libnand.a(nand_ids.o)
                              drivers/mtd/nand/libnand.a(nand_base.o) (nand_flash_ids)
common/libcommon.a(cmd_bdinfo.o)
                              (__u_boot_cmd_bdinfo)
common/libcommon.a(cmd_boot.o)
                              (__u_boot_cmd_go)
common/libcommon.a(cmd_bootm.o)
                              arch/arm/lib/libarm.a(board.o) (load_addr)
common/libcommon.a(cmd_console.o)
                              (__u_boot_cmd_coninfo)
common/libcommon.a(cmd_echo.o)
                              (__u_boot_cmd_echo)
common/libcommon.a(cmd_exit.o)
                              (__u_boot_cmd_exit)
common/libcommon.a(cmd_falinux.o)
                              (__u_boot_cmd_set)
common/libcommon.a(cmd_fat.o)
                              (__u_boot_cmd_fatload)
common/libcommon.a(cmd_flash.o)
                              (__u_boot_cmd_flinfo)
common/libcommon.a(cmd_help.o)
                              (__u_boot_cmd_help)
common/libcommon.a(cmd_itest.o)
                              (__u_boot_cmd_itest)
common/libcommon.a(cmd_load.o)
                              (__u_boot_cmd_loads)
common/libcommon.a(cmd_mem.o)
                              (__u_boot_cmd_md)
common/libcommon.a(cmd_misc.o)
                              (__u_boot_cmd_sleep)
common/libcommon.a(cmd_mmc.o)
                              (__u_boot_cmd_mmcinfo)
common/libcommon.a(cmd_nand.o)
                              (__u_boot_cmd_nand)
common/libcommon.a(cmd_net.o)
                              (__u_boot_cmd_bootp)
common/libcommon.a(cmd_nvedit.o)
                              net/libnet.a(eth.o) (get_env_id)
common/libcommon.a(cmd_source.o)
                              (__u_boot_cmd_source)
common/libcommon.a(cmd_test.o)
                              (__u_boot_cmd_test)
common/libcommon.a(cmd_usb.o)
                              (__u_boot_cmd_usb)
common/libcommon.a(cmd_version.o)
                              (__u_boot_cmd_version)
common/libcommon.a(cmd_ximg.o)
                              (__u_boot_cmd_imxtract)
common/libcommon.a(cmd_zmac.o)
                              (__u_boot_cmd_zmac)
common/libcommon.a(command.o)
                              common/libcommon.a(cmd_itest.o) (cmd_get_data_size)
common/libcommon.a(console.o)
                              arch/arm/cpu/arm1176/nxp2120/libnxp2120.a(cpu.o) (printf)
common/libcommon.a(dlmalloc.o)
                              drivers/mtd/nand/libnand.a(nand_base.o) (free)
common/libcommon.a(env_common.o)
                              common/libcommon.a(cmd_nvedit.o) (env_get_addr)
common/libcommon.a(env_nand.o)
                              common/libcommon.a(env_common.o) (env_get_char_spec)
common/libcommon.a(exports.o)
                              arch/arm/lib/libarm.a(board.o) (jumptable_init)
common/libcommon.a(hush.o)    common/libcommon.a(cmd_bootm.o) (parse_string_outer)
common/libcommon.a(image.o)   common/libcommon.a(cmd_ximg.o) (image_multi_count)
common/libcommon.a(main.o)    common/libcommon.a(cmd_nvedit.o) (do_run)
common/libcommon.a(s_record.o)
                              common/libcommon.a(cmd_load.o) (srec_decode)
common/libcommon.a(stdio.o)   common/libcommon.a(cmd_console.o) (stdio_get_list)
common/libcommon.a(usb.o)     common/libcommon.a(cmd_usb.o) (usb_get_dev_index)
common/libcommon.a(usb_storage.o)
                              common/libcommon.a(cmd_usb.o) (usb_stor_get_dev)
common/libcommon.a(xyzModem.o)
                              common/libcommon.a(cmd_load.o) (xyzModem_error)
board/nxp2120/dtk/libdtk.a(board.o)
                              arch/arm/lib/libarm.a(board.o) (board_init)
board/nxp2120/dtk/libdtk.a(logo.o)
                              board/nxp2120/dtk/libdtk.a(board.o) (nx_boot_logo)
lib/libgeneric.a(crc16.o)     common/libcommon.a(xyzModem.o) (cyg_crc16)
lib/libgeneric.a(crc32.o)     common/libcommon.a(cmd_mem.o) (crc32)
lib/libgeneric.a(ctype.o)     common/libcommon.a(hush.o) (_ctype)
lib/libgeneric.a(display_options.o)
                              arch/arm/lib/libarm.a(board.o) (print_size)
lib/libgeneric.a(div64.o)     drivers/mmc/libmmc.a(mmc.o) (__div64_32)
lib/libgeneric.a(gunzip.o)    common/libcommon.a(cmd_bootm.o) (gunzip)
lib/libgeneric.a(net_utils.o)
                              arch/arm/lib/libarm.a(board.o) (string_to_ip)
lib/libgeneric.a(string.o)    arch/arm/cpu/arm1176/nxp2120/libnxp2120.a(cmd.o) (strcpy)
lib/libgeneric.a(time.o)      arch/arm/cpu/arm1176/nxp2120/libnxp2120.a(sdhc.o) (udelay)
lib/libgeneric.a(vsprintf.o)  arch/arm/cpu/arm1176/nxp2120/libnxp2120.a(cmd.o) (simple_strtoul)
lib/libgeneric.a(zlib.o)      lib/libgeneric.a(gunzip.o) (inflateInit2_)
arch/arm/cpu/arm1176/nxp2120/libnxp2120.a(timer.o)
                              net/libnet.a(net.o) (get_timer)
arch/arm/cpu/arm1176/nxp2120/libnxp2120.a(nand.o)
                              drivers/mtd/nand/libnand.a(nand_base.o) (nand_dev_check)
arch/arm/cpu/arm1176/nxp2120/libnxp2120.a(nand_ecc.o)
                              arch/arm/cpu/arm1176/nxp2120/libnxp2120.a(nand.o) (nand_hw_ecc_init)
arch/arm/lib/libarm.a(bootm.o)
                              common/libcommon.a(cmd_bootm.o) (do_bootm_linux)
arch/arm/lib/libarm.a(cache.o)
                              common/libcommon.a(cmd_load.o) (flush_cache)
arch/arm/lib/libarm.a(reset.o)
                              common/libcommon.a(cmd_boot.o) (do_reset)
fs/fat/libfat.a(fat.o)        common/libcommon.a(cmd_fat.o) (file_fat_detectfs)
disk/libdisk.a(part.o)        common/libcommon.a(cmd_mmc.o) (print_part)
disk/libdisk.a(part_dos.o)    disk/libdisk.a(part.o) (test_part_dos)
drivers/mtd/nand/libnand.a(nand_util.o)
                              common/libcommon.a(cmd_nand.o) (nand_read_skip_bad)
drivers/net/libnet.a(dm9000x.o)
                              board/nxp2120/dtk/libdtk.a(board.o) (dm9000_initialize)
drivers/usb/host/libusb_host.a(ehci-hcd.o)
                              common/libcommon.a(usb.o) (submit_int_msg)
drivers/usb/host/libusb_host.a(ehci-nxp2120.o)
                              drivers/usb/host/libusb_host.a(ehci-hcd.o) (ehci_hcd_stop)
arch/arm/cpu/arm1176/libarm1176.a(cpu.o)
                              arch/arm/lib/libarm.a(bootm.o) (cleanup_before_linux)
arch/arm/lib/libarm.a(cache-cp15.o)
                              arch/arm/cpu/arm1176/libarm1176.a(cpu.o) (icache_disable)
/usr/lib/gcc/arm-generic-linux-gnueabi/4.3.2/libgcc.a(_udivsi3.o)
                              arch/arm/cpu/arm1176/nxp2120/libnxp2120.a(nxp2120.o) (__aeabi_uidiv)
/usr/lib/gcc/arm-generic-linux-gnueabi/4.3.2/libgcc.a(_divsi3.o)
                              common/libcommon.a(cmd_mem.o) (__aeabi_idiv)
/usr/lib/gcc/arm-generic-linux-gnueabi/4.3.2/libgcc.a(_lshrdi3.o)
                              drivers/mtd/nand/libnand.a(nand_base.o) (__aeabi_llsr)
/usr/lib/gcc/arm-generic-linux-gnueabi/4.3.2/libgcc.a(_ashrdi3.o)
                              drivers/mtd/nand/libnand.a(nand_base.o) (__aeabi_lasr)
/usr/lib/gcc/arm-generic-linux-gnueabi/4.3.2/libgcc.a(_ashldi3.o)
                              drivers/mmc/libmmc.a(mmc.o) (__aeabi_llsl)
/usr/lib/gcc/arm-generic-linux-gnueabi/4.3.2/libgcc.a(_dvmd_lnx.o)
                              /usr/lib/gcc/arm-generic-linux-gnueabi/4.3.2/libgcc.a(_udivsi3.o) (__div0)

Memory Configuration

Name             Origin             Length             Attributes
*default*        0x00000000         0xffffffff

Linker script and memory map

                0x00000000                . = 0x0
                0x00000000                . = ALIGN (0x4)

.text           0x80100000    0x31ca4
 arch/arm/cpu/arm1176/start.o(.text)
 .text          0x80100000      0x3c0 arch/arm/cpu/arm1176/start.o
                0x80100048                _bss_start
                0x8010004c                _bss_end
                0x80100044                _armboot_start
                0x80100000                _start
 *(.text)
 .text          0x801003c0       0xe0 arch/arm/cpu/arm1176/nxp2120/libnxp2120.a(cpu.o)
                0x801003cc                dram_init
                0x80100464                arch_cpu_init
                0x801003f0                arch_misc_init
                0x801003f8                arch_preboot_os
                0x801003c0                lowlevel_init
                0x801003fc                print_cpuinfo
 .text          0x801004a0      0xa68 arch/arm/cpu/arm1176/nxp2120/libnxp2120.a(nxp2120.o)
                0x80100910                mem_cfg_info
                0x80100bb8                cpu_stat_info
                0x801004a0                cpu_get_clock_hz
                0x801005f8                cpu_cfg_info
                0x80100bdc                cpu_mach_init
 .text          0x80100f08      0x104 arch/arm/cpu/arm1176/nxp2120/libnxp2120.a(wakeup.o)
                0x80100f08                cpu_mach_wakeup
 .text          0x8010100c      0x184 arch/arm/cpu/arm1176/nxp2120/libnxp2120.a(pm.o)
                0x8010100c                goto_wakeup_asm
                0x801010b4                asm_cpu_wakeup
 .text          0x80101190      0x2a4 arch/arm/cpu/arm1176/nxp2120/libnxp2120.a(serial.o)
                0x80101190                serial_setbrg
                0x80101194                serial_tstc
                0x80101228                serial_putc
                0x8010127c                serial_init
                0x8010124c                serial_puts
                0x801011b0                serial_getc
 .text          0x80101434      0xca4 arch/arm/cpu/arm1176/nxp2120/libnxp2120.a(sdhc.o)
                0x8010143c                board_mmc_init
                0x80101edc                sdhc_arch_init
 .text          0x801020d8      0x2cc arch/arm/cpu/arm1176/nxp2120/libnxp2120.a(cmd.o)
                0x80102244                do_zimage
                0x801020d8                do_info
 .text          0x801023a4      0x620 arch/arm/cpu/arm1176/nxp2120/libnxp2120.a(cmd_udown.o)
                0x8010293c                do_usbdown
                0x801023a4                iUSBBOOT
 .text          0x801029c4      0x1ec arch/arm/cpu/arm1176/nxp2120/libnxp2120.a(BootHeader.o)
                0x801029c4                MemoryInitWithRstCfg
                0x80102b64                ProcessBootHeader
 .text          0x80102bb0      0x62c arch/arm/cpu/arm1176/nxp2120/libnxp2120.a(nx_alive.o)
                0x80102cf4                NX_ALIVE_ClearInterruptPending
                0x80102d6c                NX_ALIVE_GetInterruptPendingAll
                0x80102c38                NX_ALIVE_GetInterruptNumber
                0x80102c18                NX_ALIVE_OpenModule
                0x801030ec                NX_ALIVE_SetOutputEnable
                0x80103114                NX_ALIVE_GetOutputEnable
                0x80103158                NX_ALIVE_GetOutputValue
                0x80102cdc                NX_ALIVE_GetInterruptPending32
                0x80102c20                NX_ALIVE_CloseModule
                0x80102d28                NX_ALIVE_SetInterruptEnableAll
                0x80102ed0                NX_ALIVE_SetPadRetentionHold
                0x80102d50                NX_ALIVE_GetInterruptEnableAll
                0x80102bb0                NX_ALIVE_Initialize
                0x80102f4c                NX_ALIVE_GetDetectEnable
                0x80102be4                NX_ALIVE_GetPhysicalAddress
                0x80102bf0                NX_ALIVE_GetSizeOfRegisterSet
                0x80102c28                NX_ALIVE_CheckBusy
                0x80102bdc                NX_ALIVE_GetNumberOfModule
                0x80102eb0                NX_ALIVE_GetPadRetentionEnable
                0x80102e60                NX_ALIVE_GetPullUpEnable
                0x80102c08                NX_ALIVE_GetBaseAddress
                0x80102f68                NX_ALIVE_SetDetectMode
                0x801030d0                NX_ALIVE_GetVDDPWRTOGGLE
                0x80102c68                NX_ALIVE_GetInterruptEnable
                0x80102e08                NX_ALIVE_SetScratchReg
                0x80103174                NX_ALIVE_SetVDDPWRON
                0x80102d88                NX_ALIVE_ClearInterruptPendingAll
                0x801031a8                NX_ALIVE_GetVDDPWRON
                0x80102f24                NX_ALIVE_SetDetectEnable
                0x80102da0                NX_ALIVE_GetInterruptPendingNumber
                0x80102bf8                NX_ALIVE_SetBaseAddress
                0x80102c84                NX_ALIVE_SetInterruptEnable32
                0x80102e24                NX_ALIVE_GetScratchReg
                0x80102e7c                NX_ALIVE_SetPadRetentionEnable
                0x801031c0                NX_ALIVE_GetVDDPWRON_DDR
                0x80102f04                NX_ALIVE_GetPadRetentionHold
                0x80102e38                NX_ALIVE_SetPullUpEnable
                0x80102df0                NX_ALIVE_GetWriteEnable
                0x80102ca8                NX_ALIVE_GetInterruptEnable32
                0x80102c40                NX_ALIVE_SetInterruptEnable
                0x80103130                NX_ALIVE_SetOutputValue
                0x80102c30                NX_ALIVE_CanPowerDown
                0x80102d10                NX_ALIVE_ClearInterruptPending32
                0x80102cc0                NX_ALIVE_GetInterruptPending
                0x80103030                NX_ALIVE_GetDetectMode
                0x80102ddc                NX_ALIVE_SetWriteEnable
 .text          0x801031dc      0x83c arch/arm/cpu/arm1176/nxp2120/libnxp2120.a(nx_clkpwr.o)
                0x80103710                NX_CLKPWR_SetALIVEGPIOWakeUpFallEdgeDetectEnable
                0x80103750                NX_CLKPWR_SetSoftwareResetEnable
                0x801032f0                NX_CLKPWR_GetInterruptEnable
                0x80103374                NX_CLKPWR_GetInterruptPending
                0x80103404                NX_CLKPWR_ClearInterruptPending32
                0x80103654                NX_CLKPWR_SetRTCWakeUpEnable
                0x801037e4                NX_CLKPWR_GetResetStatus
                0x801036b4                NX_CLKPWR_GetALIVEGPIOWakeupEnable
                0x80103290                NX_CLKPWR_GetInterruptNumber
                0x80103970                NX_CLKPWR_SetBusPadStrength
                0x801036d0                NX_CLKPWR_SetALIVEGPIOWakeUpRiseEdgeDetectEnable
                0x8010334c                NX_CLKPWR_GetInterruptEnable32
                0x80103814                NX_CLKPWR_GoIdleMode
                0x80103588                NX_CLKPWR_DoPLLChange
                0x801035e8                NX_CLKPWR_SetClockMCLK
                0x80103298                NX_CLKPWR_SetInterruptEnable
                0x80103494                NX_CLKPWR_GetInterruptPendingAll
                0x80103460                NX_CLKPWR_GetInterruptEnableAll
                0x8010342c                NX_CLKPWR_SetInterruptEnableAll
                0x801035a4                NX_CLKPWR_IsPLLStable
                0x801033a8                NX_CLKPWR_GetInterruptPending32
                0x801035c4                NX_CLKPWR_SetClockCPU
                0x8010321c                NX_CLKPWR_GetSizeOfRegisterSet
                0x801034c8                NX_CLKPWR_ClearInterruptPendingAll
                0x80103874                NX_CLKPWR_GetSystemResetConfiguration
                0x801033d0                NX_CLKPWR_ClearInterruptPending
                0x801031dc                NX_CLKPWR_Initialize
                0x80103544                NX_CLKPWR_SetPLLPMS
                0x80103690                NX_CLKPWR_SetALIVEGPIOWakeupEnable
                0x80103638                NX_CLKPWR_GetCPUBUSSyncMode
                0x80103888                NX_CLKPWR_SetGPIOPadStrength
                0x801034ec                NX_CLKPWR_GetInterruptPendingNumber
                0x80103244                NX_CLKPWR_OpenModule
                0x801037a4                NX_CLKPWR_SetALIVEGPIOResetEnable
                0x801037fc                NX_CLKPWR_GoStopMode
                0x80103234                NX_CLKPWR_GetBaseAddress
                0x80103324                NX_CLKPWR_SetInterruptEnable32
                0x8010382c                NX_CLKPWR_GetLastPowerMode
                0x801039bc                NX_CLKPWR_GetBusPadStrength
                0x8010324c                NX_CLKPWR_CloseModule
                0x801038f4                NX_CLKPWR_GetGPIOPadStrength
                0x80103844                NX_CLKPWR_SetScratchPad
                0x80103254                NX_CLKPWR_CheckBusy
                0x80103564                NX_CLKPWR_SetPLLPowerOn
                0x80103770                NX_CLKPWR_GetSoftwareResetEnable
                0x8010378c                NX_CLKPWR_DoSoftwareReset
                0x80103614                NX_CLKPWR_SetCPUBUSSyncMode
                0x80103224                NX_CLKPWR_SetBaseAddress
                0x801037c8                NX_CLKPWR_GetALIVEGPIOResetEnable
                0x80103210                NX_CLKPWR_GetPhysicalAddress
                0x801036f4                NX_CLKPWR_GetALIVEGPIOWakeUpRiseEdgeDetectEnable
                0x80103270                NX_CLKPWR_CanPowerDown
                0x80103208                NX_CLKPWR_GetNumberOfModule
                0x80103734                NX_CLKPWR_GetALIVEGPIOWakeUpFallEdgeDetectEnable
                0x8010385c                NX_CLKPWR_GetScratchPad
                0x80103674                NX_CLKPWR_GetRTCWakeUpEnable
 .text          0x80103a18      0xd94 arch/arm/cpu/arm1176/nxp2120/libnxp2120.a(nx_dpc.o)
                0x80103a44                NX_DPC_GetNumberOfModule
                0x80103efc                NX_DPC_SetDPCEnable
                0x80103c64                NX_DPC_SetClockPClkMode
                0x80103bd8                NX_DPC_GetInterruptEnableAll
                0x80104008                NX_DPC_SetDither
                0x8010441c                NX_DPC_SetVSync
                0x80103adc                NX_DPC_GetInterruptEnable
                0x80104398                NX_DPC_GetHSync
                0x80103b70                NX_DPC_ClearInterruptPending
                0x80103a8c                NX_DPC_CloseModule
                0x80104628                NX_DPC_SetVSyncOffset
                0x80103f3c                NX_DPC_SetDelay
                0x80104538                NX_DPC_GetVSync
                0x80103e50                NX_DPC_GetClockOutEnb
                0x80103d78                NX_DPC_GetClockOutInv
                0x801042f0                NX_DPC_SetHSync
                0x80103d50                NX_DPC_SetClockOutInv
                0x80103c90                NX_DPC_GetClockPClkMode
                0x80103c2c                NX_DPC_GetInterruptPendingNumber
                0x80103bf4                NX_DPC_GetInterruptPendingAll
                0x80103b1c                NX_DPC_GetInterruptEnable32
                0x80103b8c                NX_DPC_ClearInterruptPending32
                0x80103ec0                NX_DPC_SetClockDivisorEnable
                0x80103a64                NX_DPC_SetBaseAddress
                0x80103e24                NX_DPC_SetClockOutEnb
                0x801041bc                NX_DPC_GetMode
                0x80103a18                NX_DPC_Initialize
                0x80103af8                NX_DPC_SetInterruptEnable32
                0x80103cac                NX_DPC_SetClockSource
                0x80103b54                NX_DPC_GetInterruptPending32
                0x80103e08                NX_DPC_GetClockPolarity
                0x80103de4                NX_DPC_SetClockPolarity
                0x8010472c                NX_DPC_GetHorizontalUpScaler
                0x80103e74                NX_DPC_SetClockOutDelay
                0x80104038                NX_DPC_GetDither
                0x80103ea4                NX_DPC_GetClockOutDelay
                0x80103aa4                NX_DPC_GetInterruptNumber
                0x80103bb0                NX_DPC_SetInterruptEnableAll
                0x80103cf4                NX_DPC_SetClockDivisor
                0x80103f90                NX_DPC_GetDelay
                0x80103a9c                NX_DPC_CanPowerDown
                0x80103a4c                NX_DPC_GetPhysicalAddress
                0x80103d24                NX_DPC_GetClockDivisor
                0x801046cc                NX_DPC_SetHorizontalUpScaler
                0x80103cd4                NX_DPC_GetClockSource
                0x80103ab4                NX_DPC_SetInterruptEnable
                0x80103ee0                NX_DPC_GetClockDivisorEnable
                0x80103c10                NX_DPC_ClearInterruptPendingAll
                0x80103f24                NX_DPC_GetDPCEnable
                0x80103dc4                NX_DPC_GetClockOutSelect
                0x80104080                NX_DPC_SetMode
                0x80103d98                NX_DPC_SetClockOutSelect
                0x80103b38                NX_DPC_GetInterruptPending
                0x80103a84                NX_DPC_OpenModule
                0x80103a74                NX_DPC_GetBaseAddress
                0x8010466c                NX_DPC_GetVSyncOffset
                0x80103a94                NX_DPC_CheckBusy
                0x80103a5c                NX_DPC_GetSizeOfRegisterSet
 .text          0x801047ac      0x50c arch/arm/cpu/arm1176/nxp2120/libnxp2120.a(nx_gpio.o)
                0x801047fc                NX_GPIO_Initialize
                0x80104854                NX_GPIO_SetBaseAddress
                0x80104b00                NX_GPIO_SetOutputEnable
                0x80104ca8                NX_GPIO_GetValidBit
                0x80104a08                NX_GPIO_GetInterruptEnableAll
                0x80104a9c                NX_GPIO_SetInterruptMode
                0x80104894                NX_GPIO_GetInterruptNumber
                0x8010487c                NX_GPIO_CloseModule
                0x801047d0                NX_GPIO_SetBit2
                0x80104c44                NX_GPIO_SetPadFunction
                0x801048e0                NX_GPIO_GetInterruptEnable
                0x80104874                NX_GPIO_OpenModule
                0x80104b8c                NX_GPIO_GetOutputEnable
                0x8010488c                NX_GPIO_CanPowerDown
                0x801049a8                NX_GPIO_ClearInterruptPending32
                0x80104ba8                NX_GPIO_SetOutputValue
                0x80104a58                NX_GPIO_GetInterruptPendingNumber
                0x8010489c                NX_GPIO_SetInterruptEnable
                0x80104ad4                NX_GPIO_GetInterruptMode
                0x80104864                NX_GPIO_GetBaseAddress
                0x80104bcc                NX_GPIO_GetOutputValue
                0x8010498c                NX_GPIO_ClearInterruptPending
                0x80104a40                NX_GPIO_ClearInterruptPendingAll
                0x80104c7c                NX_GPIO_GetPadFunction
                0x80104968                NX_GPIO_GetInterruptPending32
                0x801047ec                NX_GPIO_GetBit2
                0x80104884                NX_GPIO_CheckBusy
                0x80104be8                NX_GPIO_GetInputValue
                0x80104c04                NX_GPIO_SetPullUpEnable
                0x8010483c                NX_GPIO_GetPhysicalAddress
                0x80104b78                NX_GPIO_SetDetectEnable32
                0x8010484c                NX_GPIO_GetSizeOfRegisterSet
                0x801047c4                NX_GPIO_GetBit
                0x80104834                NX_GPIO_GetNumberOfModule
                0x80104c28                NX_GPIO_GetPullUpEnable
                0x801047ac                NX_GPIO_SetBit
                0x80104928                NX_GPIO_GetInterruptEnable32
                0x80104b54                NX_GPIO_SetDetectEnable
                0x801048fc                NX_GPIO_SetInterruptEnable32
                0x80104b40                NX_GPIO_GetDetectEnable32
                0x80104a24                NX_GPIO_GetInterruptPendingAll
                0x8010494c                NX_GPIO_GetInterruptPending
                0x80104b24                NX_GPIO_GetDetectEnable
                0x801049cc                NX_GPIO_SetInterruptEnableAll
 .text          0x80104cb8      0x360 arch/arm/cpu/arm1176/nxp2120/libnxp2120.a(nx_intc.o)
                0x80104d30                NX_INTC_CheckBusy
                0x80104fdc                NX_INTC_SetPriorityMode
                0x80104cf8                NX_INTC_GetSizeOfRegisterSet
                0x80104e34                NX_INTC_GetInterruptPending64
                0x80104e68                NX_INTC_ClearInterruptPending
                0x80104ce4                NX_INTC_GetNumberOfModule
                0x80104d38                NX_INTC_CanPowerDown
                0x80104fa4                NX_INTC_SetInterruptMode
                0x80104da8                NX_INTC_SetInterruptEnable64
                0x80104d40                NX_INTC_SetInterruptEnable
                0x80104d10                NX_INTC_GetBaseAddress
                0x80104f10                NX_INTC_GetInterruptPendingAll
                0x80104f58                NX_INTC_GetInterruptPendingNumber
                0x80104cec                NX_INTC_GetPhysicalAddress
                0x80104e94                NX_INTC_ClearInterruptPending64
                0x80104dd4                NX_INTC_GetInterruptEnable64
                0x80104d28                NX_INTC_CloseModule
                0x80104cb8                NX_INTC_Initialize
                0x80104ec0                NX_INTC_SetInterruptEnableAll
                0x80104d20                NX_INTC_OpenModule
                0x80104e08                NX_INTC_GetInterruptPending
                0x80104d00                NX_INTC_SetBaseAddress
                0x80104d78                NX_INTC_GetInterruptEnable
                0x80104ee4                NX_INTC_GetInterruptEnableAll
                0x80104f3c                NX_INTC_ClearInterruptPendingAll
 .text          0x80105018      0xd44 arch/arm/cpu/arm1176/nxp2120/libnxp2120.a(nx_mcud.o)
                0x801050c4                NX_MCUD_GetEnable
                0x80105258                NX_MCUD_GetDataWidth
                0x80105358                NX_MCUD_GetDelayLatency
                0x801052bc                NX_MCUD_SetCASLatency
                0x801052dc                NX_MCUD_GetCASLatency
                0x8010563c                NX_MCUD_GetWR
                0x801057b8                NX_MCUD_PHYDLL_SetConfig
                0x80105098                NX_MCUD_CanPowerDown
                0x8010569c                NX_MCUD_SetActivePowerDownEnable
                0x80105a2c                NX_MCUD_PHYZQ_SetODT
                0x80105680                NX_MCUD_GetWTR
                0x8010565c                NX_MCUD_SetWTR
                0x801050e0                NX_MCUD_SetDLLReset
                0x80105088                NX_MCUD_CloseModule
                0x80105378                NX_MCUD_SetDIC
                0x80105550                NX_MCUD_SetRFC
                0x80105d2c                NX_MCUD_GetInitPerformanceCounter
                0x80105a58                NX_MCUD_PHYZQ_GetODT
                0x80105444                NX_MCUD_SetDLLEnable
                0x801053b8                NX_MCUD_SetODT
                0x80105d18                NX_MCUD_SetInitPerformanceCounter
                0x801055f8                NX_MCUD_GetRTP
                0x80105334                NX_MCUD_SetDelayLatency
                0x80105cc8                NX_MCUD_GetSlowArbiter
                0x80105b70                NX_MCUD_PHYZQ_IsError
                0x801059e8                NX_MCUD_PHYZQ_SetAutoMode
                0x80105044                NX_MCUD_GetNumberOfModule
                0x8010579c                NX_MCUD_PHYDLL_GetAutoMode
                0x80105080                NX_MCUD_OpenModule
                0x8010591c                NX_MCUD_PHYDLL_SetManualDelay
                0x801052f8                NX_MCUD_SetAdditiveLatency
                0x801053d8                NX_MCUD_GetODT
                0x8010571c                NX_MCUD_SetRefreshPeriod
                0x80105018                NX_MCUD_Initialize
                0x80105b20                NX_MCUD_PHYZQ_Run
                0x80105b58                NX_MCUD_PHYZQ_IsRun
                0x80105180                NX_MCUD_ApplyModeSetting
                0x80105ba8                NX_MCUD_PHYZQ_Update
                0x80105c1c                NX_MCUD_GetFastArbiter
                0x801058bc                NX_MCUD_PHYDLL_IsLockFine
                0x801058a0                NX_MCUD_PHYDLL_IsLockCoarse
                0x801054ec                NX_MCUD_GetRP
                0x80105a0c                NX_MCUD_PHYZQ_GetAutoMode
                0x80105058                NX_MCUD_GetSizeOfRegisterSet
                0x801051b8                NX_MCUD_SetType
                0x801053f4                NX_MCUD_SetDQSMode
                0x80105b3c                NX_MCUD_PHYZQ_Stop
                0x80105218                NX_MCUD_GetBusWidth
                0x8010550c                NX_MCUD_SetRAS
                0x801058d8                NX_MCUD_PHYDLL_GetAutoDelay
                0x801059a0                NX_MCUD_PHYDLL_GetDQSDelay
                0x80105090                NX_MCUD_CheckBusy
                0x80105aec                NX_MCUD_PHYZQ_GetAutoResult
                0x80105468                NX_MCUD_GetDLLEnable
                0x801057fc                NX_MCUD_PHYDLL_GetConfig
                0x80105574                NX_MCUD_GetRFC
                0x80105234                NX_MCUD_SetDataWidth
                0x8010539c                NX_MCUD_GetDIC
                0x80105120                NX_MCUD_SetMCLKConfig
                0x80105b8c                NX_MCUD_PHYZQ_IsCompleted
                0x80105750                NX_MCUD_GetRefreshPeriod
                0x80105c68                NX_MCUD_SetSlowArbiter
                0x80105700                NX_MCUD_GetActivePowerDownPeriod
                0x801054c8                NX_MCUD_SetRP
                0x80105888                NX_MCUD_PHYDLL_IsRun
                0x80105590                NX_MCUD_SetMRD
                0x80105150                NX_MCUD_GetMCLKConfig
                0x80105bc0                NX_MCUD_SetFastArbiter
                0x801056dc                NX_MCUD_SetActivePowerDownPeriod
                0x8010586c                NX_MCUD_PHYDLL_Stop
                0x801051d8                NX_MCUD_GetType
                0x80105850                NX_MCUD_PHYDLL_Run
                0x80105abc                NX_MCUD_PHYZQ_GetControlCode
                0x80105428                NX_MCUD_GetDQSMode
                0x80105318                NX_MCUD_GetAdditiveLatency
                0x8010504c                NX_MCUD_GetPhysicalAddress
                0x8010519c                NX_MCUD_IsBusyModeSetting
                0x80105954                NX_MCUD_PHYDLL_SetDQSDelay
                0x80105060                NX_MCUD_SetBaseAddress
                0x80105530                NX_MCUD_GetRAS
                0x80105618                NX_MCUD_SetWR
                0x8010593c                NX_MCUD_PHYDLL_GetManualDelay
                0x80105488                NX_MCUD_SetRCD
                0x801054ac                NX_MCUD_GetRCD
                0x80105270                NX_MCUD_SetCapacity
                0x801050a0                NX_MCUD_SetEnable
                0x801055d4                NX_MCUD_SetRTP
                0x80105778                NX_MCUD_PHYDLL_SetAutoMode
                0x801056c0                NX_MCUD_GetActivePowerDownEnable
                0x80105a98                NX_MCUD_PHYZQ_SetControlCode
                0x80105298                NX_MCUD_GetCapacity
                0x80105d40                NX_MCUD_GetPerformanceCounter
                0x80105070                NX_MCUD_GetBaseAddress
                0x801051f4                NX_MCUD_SetBusWidth
                0x80105104                NX_MCUD_GetDLLReset
                0x801055b4                NX_MCUD_GetMRD
 .text          0x80105d5c     0x1140 arch/arm/cpu/arm1176/nxp2120/libnxp2120.a(nx_mcus.o)
                0x80106710                NX_MCUS_SetIDEDMAEnable
                0x80106aa0                NX_MCUS_IsNFReady
                0x80106abc                NX_MCUS_SetAutoResetEnable
                0x80106bc8                NX_MCUS_IsNFReadEnd
                0x80106b6c                NX_MCUS_GetNFWriteDataCount
                0x80105f04                NX_MCUS_GetInterruptEnable32
                0x80105d9c                NX_MCUS_GetSizeOfRegisterSet
                0x80105f94                NX_MCUS_GetDMABusWidth
                0x80105dec                NX_MCUS_SetInterruptEnable
                0x80105e44                NX_MCUS_ClearInterruptPending
                0x80105dd4                NX_MCUS_CheckBusy
                0x80106cc8                NX_MCUS_SetNFOriginECC8
                0x80106b00                NX_MCUS_ResetNFECCBlock
                0x80106868                NX_MCUS_GetIDEDMAConfig
                0x80106c24                NX_MCUS_GetNFECC8
                0x80105f20                NX_MCUS_GetInterruptPending32
                0x80105d88                NX_MCUS_GetNumberOfModule
                0x80106784                NX_MCUS_SetIDEDMAConfig
                0x80105e28                NX_MCUS_GetInterruptPending
                0x80105fd8                NX_MCUS_SetStaticBUSConfig
                0x8010674c                NX_MCUS_SetIDEDMAMode
                0x80106bac                NX_MCUS_IsNFError
                0x80105f3c                NX_MCUS_ClearInterruptPending32
                0x80106a24                NX_MCUS_SetNFBank
                0x80105e0c                NX_MCUS_GetInterruptEnable
                0x80106b48                NX_MCUS_GetECCMode
                0x80106a08                NX_MCUS_GetNFBootEnable
                0x80106d80                NX_MCUS_GetNFECCOddSyndrome8
                0x801069e0                NX_MCUS_SetNFBootEnable
                0x80106a48                NX_MCUS_GetNFBank
                0x80106b90                NX_MCUS_GetNFReadDataCount
                0x801062e4                NX_MCUS_GetStaticBUSConfig
                0x80105f68                NX_MCUS_GetInterruptPendingNumber
                0x80105dcc                NX_MCUS_CloseModule
                0x80106de8                NX_MCUS_GetNFECCOddSyndrome16
                0x80105fbc                NX_MCUS_GetIROMCS
                0x80105d90                NX_MCUS_GetPhysicalAddress
                0x80105e84                NX_MCUS_GetInterruptEnableAll
                0x80106730                NX_MCUS_GetIDEDMAEnable
                0x80105dc4                NX_MCUS_OpenModule
                0x80106be4                NX_MCUS_IsNFWriteEnd
                0x801066c8                NX_MCUS_SetIDEDMATimeOut
                0x80105de4                NX_MCUS_GetInterruptNumber
                0x80106d40                NX_MCUS_GetNFECCOddSyndrome4
                0x80106bfc                NX_MCUS_GetNFECC4
                0x80105ec0                NX_MCUS_ClearInterruptPendingAll
                0x8010676c                NX_MCUS_GetIDEDMAMode
                0x80106a60                NX_MCUS_SetNFCSEnable
                0x801066e0                NX_MCUS_GetIDEDMATimeOut
                0x80106b20                NX_MCUS_SetECCMode
                0x80105da4                NX_MCUS_SetBaseAddress
                0x801069a0                NX_MCUS_SetNFType
                0x80105f8c                NX_MCUS_GetDMAIndex
                0x80105d5c                NX_MCUS_Initialize
                0x80105db4                NX_MCUS_GetBaseAddress
                0x801066a8                NX_MCUS_ResetIDEDMA
                0x80105ddc                NX_MCUS_CanPowerDown
                0x801069c4                NX_MCUS_GetNFType
                0x80105ee0                NX_MCUS_SetInterruptEnable32
                0x80106a88                NX_MCUS_GetNFCSEnable
                0x80106cf8                NX_MCUS_SetNFOriginECC16
                0x80105ea0                NX_MCUS_GetInterruptPendingAll
                0x80106ae4                NX_MCUS_GetAutoResetEnable
                0x80105f9c                NX_MCUS_GetISRAMCS
                0x80106ca8                NX_MCUS_SetNFOriginECC4
                0x80105e64                NX_MCUS_SetInterruptEnableAll
                0x80106c58                NX_MCUS_GetNFECC16
 .text          0x80106e9c     0x10f4 arch/arm/cpu/arm1176/nxp2120/libnxp2120.a(nx_mlc.o)
                0x80107b18                NX_MLC_SetVideoLayerStride
                0x80107ec4                NX_MLC_SetVideoLayerGamaTableSleepMode
                0x80107e0c                NX_MLC_SetVideoLayerLineBufferSleepMode
                0x80106fd4                NX_MLC_SetTopPowerMode
                0x80107bb8                NX_MLC_SetVideoLayerScaleFilter
                0x80106ec8                NX_MLC_GetNumberOfModule
                0x80107990                NX_MLC_SetRGBLayerGamaTablePowerMode
                0x80107b68                NX_MLC_SetVideoLayerScaleFactor
                0x80107f74                NX_MLC_GetVideoLayerGammaEnable
                0x80107c58                NX_MLC_SetVideoLayerScale
                0x80107dcc                NX_MLC_SetVideoLayerLineBufferPowerMode
                0x80107710                NX_MLC_SetFormatRGB
                0x80106ff8                NX_MLC_GetTopPowerMode
                0x80106f70                NX_MLC_SetClockBClkMode
                0x801073d8                NX_MLC_SetColorInversion
                0x80107a40                NX_MLC_GetRGBLayerGamaTableSleepMode
                0x8010705c                NX_MLC_SetTopDirtyFlag
                0x80106ef8                NX_MLC_GetBaseAddress
                0x80107df0                NX_MLC_GetVideoLayerLineBufferPowerMode
                0x80107094                NX_MLC_SetMLCEnable
                0x80106e9c                NX_MLC_Initialize
                0x80106ee0                NX_MLC_GetSizeOfRegisterSet
                0x801071b0                NX_MLC_SetDirtyFlag
                0x80106f18                NX_MLC_CheckBusy
                0x80107818                NX_MLC_SetDitherEnableWhenUsingGamma
                0x801070b4                NX_MLC_GetMLCEnable
                0x80107b50                NX_MLC_SetVideoLayerAddressYUYV
                0x80106fa8                NX_MLC_GetClockBClkMode
                0x80107128                NX_MLC_SetScreenSize
                0x80106ed0                NX_MLC_GetPhysicalAddress
                0x80107a04                NX_MLC_SetRGBLayerGamaTableSleepMode
                0x8010723c                NX_MLC_SetLayerEnable
                0x80107870                NX_MLC_GetGammaPriority
                0x80107838                NX_MLC_GetDitherEnableWhenUsingGamma
                0x80107d48                NX_MLC_SetVideoLayerLumaEnhance
                0x80107f00                NX_MLC_GetVideoLayerGamaTableSleepMode
                0x80107e34                NX_MLC_GetVideoLayerLineBufferSleepMode
                0x80107928                NX_MLC_SetRGBLayerStride
                0x80107e54                NX_MLC_SetVideoLayerGamaTablePowerMode
                0x8010742c                NX_MLC_GetExtendedColor
                0x80106f54                NX_MLC_GetClockPClkMode
                0x80107c08                NX_MLC_GetVideoLayerScaleFilter
                0x8010788c                NX_MLC_SetRGBLayerInvalidPosition
                0x80107970                NX_MLC_SetRGBLayerAddress
                0x80107adc                NX_MLC_SetRGBLayerGammaEnable
                0x80106f28                NX_MLC_SetClockPClkMode
                0x80107afc                NX_MLC_GetRGBLayerGammaEnable
                0x801072d4                NX_MLC_SetLockSize
                0x80107b34                NX_MLC_SetVideoLayerAddress
                0x80106f08                NX_MLC_OpenModule
                0x80107310                NX_MLC_SetAlphaBlending
                0x8010703c                NX_MLC_GetTopSleepMode
                0x80107754                NX_MLC_SetFormatYUV
                0x80107d6c                NX_MLC_SetVideoLayerChromaEnhance
                0x80107288                NX_MLC_GetLayerEnable
                0x80106ee8                NX_MLC_SetBaseAddress
                0x80107ac4                NX_MLC_SetRGBLayerBGammaTable
                0x80106f20                NX_MLC_CanPowerDown
                0x8010719c                NX_MLC_SetBackground
                0x80107078                NX_MLC_GetTopDirtyFlag
                0x80107aac                NX_MLC_SetRGBLayerGGammaTable
                0x801071f0                NX_MLC_GetDirtyFlag
                0x80107f54                NX_MLC_SetVideoLayerGammaEnable
                0x801070f0                NX_MLC_GetFieldEnable
                0x80107384                NX_MLC_SetTransparency
                0x80107a94                NX_MLC_SetRGBLayerRGammaTable
                0x801070d0                NX_MLC_SetFieldEnable
                0x80107850                NX_MLC_SetGammaPriority
                0x80107e7c                NX_MLC_GetVideoLayerGamaTablePowerMode
                0x80106f10                NX_MLC_CloseModule
                0x80107108                NX_MLC_SetLayerPriority
                0x801079bc                NX_MLC_GetRGBLayerGamaTablePowerMode
                0x80107014                NX_MLC_SetTopSleepMode
                0x80107778                NX_MLC_SetPosition
                0x80107148                NX_MLC_GetScreenSize
 .text          0x80107f90      0x350 arch/arm/cpu/arm1176/nxp2120/libnxp2120.a(nx_pwm.o)
                0x801080d0                NX_PWM_GetClockSource
                0x80108074                NX_PWM_SetClockDivisorEnable
                0x80107fbc                NX_PWM_GetNumberOfModule
                0x80108258                NX_PWM_GetPeriod
                0x80107f90                NX_PWM_Initialize
                0x801082b8                NX_PWM_GetDutyCycle
                0x80108280                NX_PWM_SetDutyCycle
                0x80108000                NX_PWM_CloseModule
                0x801081ac                NX_PWM_SetPolarity
                0x80108178                NX_PWM_GetPreScale
                0x80107fd8                NX_PWM_SetBaseAddress
                0x80108114                NX_PWM_GetClockDivisor
                0x80108024                NX_PWM_CanPowerDown
                0x80107ff8                NX_PWM_OpenModule
                0x80108008                NX_PWM_CheckBusy
                0x801080ec                NX_PWM_SetClockDivisor
                0x80108228                NX_PWM_SetPeriod
                0x80108094                NX_PWM_GetClockDivisorEnable
                0x80107fc4                NX_PWM_GetPhysicalAddress
                0x80107fe8                NX_PWM_GetBaseAddress
                0x801081f4                NX_PWM_GetPolarity
                0x8010802c                NX_PWM_SetClockPClkMode
                0x80107fd0                NX_PWM_GetSizeOfRegisterSet
                0x80108058                NX_PWM_GetClockPClkMode
                0x801080b0                NX_PWM_SetClockSource
                0x80108134                NX_PWM_SetPreScale
 .text          0x801082e0      0xa30 arch/arm/cpu/arm1176/nxp2120/libnxp2120.a(nx_sdhc.o)
                0x80108b50                NX_SDHC_IsFIFOTxThreshold
                0x80108a70                NX_SDHC_IsDMAAck
                0x801087d8                NX_SDHC_SetOutputClockDivider
                0x80108bcc                NX_SDHC_SetFIFOTxThreshold
                0x80108314                NX_SDHC_GetPhysicalAddress
                0x80108ac4                NX_SDHC_IsCardDataBusy
                0x80108970                NX_SDHC_GetByteCount
                0x80108648                NX_SDHC_GetClockDivisor
                0x801085c8                NX_SDHC_GetClockPClkMode
                0x801088ac                NX_SDHC_GetDataTimeOut
                0x80108a28                NX_SDHC_GetAutoStopResponse
                0x801089b0                NX_SDHC_StartCommand
                0x80108764                NX_SDHC_ResetFIFO
                0x801085e4                NX_SDHC_SetClockSource
                0x80108560                NX_SDHC_ClearInterruptPending32
                0x801084ac                NX_SDHC_GetInterruptPendingAll
                0x80108694                NX_SDHC_GetClockDivisorEnable
                0x80108914                NX_SDHC_GetDataBusWidth
                0x80108c34                NX_SDHC_SetData
                0x8010830c                NX_SDHC_GetNumberOfModule
                0x80108374                NX_SDHC_CloseModule
                0x80108354                NX_SDHC_OpenModule
                0x80108c48                NX_SDHC_GetData
                0x80108670                NX_SDHC_SetClockDivisorEnable
                0x801088e4                NX_SDHC_GetResponseTimeOut
                0x801086b0                NX_SDHC_AbortReadData
                0x8010859c                NX_SDHC_SetClockPClkMode
                0x801087c0                NX_SDHC_IsResetController
                0x80108948                NX_SDHC_GetBlockSize
                0x80108a58                NX_SDHC_IsDMAReq
                0x801086cc                NX_SDHC_SendIRQResponse
                0x80108328                NX_SDHC_GetSizeOfRegisterSet
                0x80108450                NX_SDHC_ClearInterruptPending
                0x801087a0                NX_SDHC_ResetController
                0x80108bf0                NX_SDHC_GetFIFOTxThreshold
                0x801089f8                NX_SDHC_GetLongResponse
                0x80108a3c                NX_SDHC_GetResponseIndex
                0x801089e4                NX_SDHC_GetShortResponse
                0x801084e0                NX_SDHC_GetInterruptPendingNumber
                0x80108934                NX_SDHC_SetBlockSize
                0x80108aa8                NX_SDHC_IsDataTransferBusy
                0x8010888c                NX_SDHC_SetDataTimeOut
                0x80108ae0                NX_SDHC_IsCardPresent
                0x80108394                NX_SDHC_CheckBusy
                0x801087f0                NX_SDHC_GetOutputClockDivider
                0x80108334                NX_SDHC_SetBaseAddress
                0x80108574                NX_SDHC_GetDMAIndex
                0x801083f4                NX_SDHC_SetInterruptEnable
                0x80108c0c                NX_SDHC_GetDataTransferSize
                0x80108a8c                NX_SDHC_GetFIFOCount
                0x80108434                NX_SDHC_GetInterruptPending
                0x80108c20                NX_SDHC_GetFIFOTransferSize
                0x80108620                NX_SDHC_SetClockDivisor
                0x80108cac                NX_SDHC_GetData32
                0x80108afc                NX_SDHC_GetCommandFSM
                0x80108b6c                NX_SDHC_IsFIFORxThreshold
                0x801082e0                NX_SDHC_Initialize
                0x80108604                NX_SDHC_GetClockSource
                0x80108344                NX_SDHC_GetBaseAddress
                0x80108c5c                NX_SDHC_SetData32
                0x80108708                NX_SDHC_SetDMAMode
                0x801084c8                NX_SDHC_ClearInterruptPendingAll
                0x80108538                NX_SDHC_GetInterruptEnable32
                0x80108874                NX_SDHC_GetOutputClockEnable
                0x80108518                NX_SDHC_SetInterruptEnable32
                0x80108748                NX_SDHC_IsResetDMA
                0x801089cc                NX_SDHC_IsCommandBusy
                0x80108b84                NX_SDHC_SetFIFORxThreshold
                0x80108cfc                NX_SDHC_GetDataPointer
                0x80108490                NX_SDHC_GetInterruptEnableAll
                0x801088fc                NX_SDHC_SetDataBusWidth
                0x8010895c                NX_SDHC_SetByteCount
                0x80108984                NX_SDHC_SetCommandArgument
                0x801088c4                NX_SDHC_SetResponseTimeOut
                0x80108b34                NX_SDHC_IsFIFOEmpty
                0x80108810                NX_SDHC_SetLowPowerClockMode
                0x80108784                NX_SDHC_IsResetFIFO
                0x80108728                NX_SDHC_ResetDMA
                0x80108998                NX_SDHC_SetCommand
                0x8010846c                NX_SDHC_SetInterruptEnableAll
                0x801083b4                NX_SDHC_CanPowerDown
                0x801083d4                NX_SDHC_GetInterruptNumber
                0x8010854c                NX_SDHC_GetInterruptPending32
                0x80108b18                NX_SDHC_IsFIFOFull
                0x80108418                NX_SDHC_GetInterruptEnable
                0x80108594                NX_SDHC_GetDMABusWidth
                0x80108834                NX_SDHC_GetLowPowerClockMode
                0x801086e8                NX_SDHC_SetReadWait
                0x80108ba8                NX_SDHC_GetFIFORxThreshold
                0x80108850                NX_SDHC_SetOutputClockEnable
 .text          0x80108d10      0x420 arch/arm/cpu/arm1176/nxp2120/libnxp2120.a(nx_timer.o)
                0x80108e3c                NX_TIMER_GetInterruptPending
                0x80108f28                NX_TIMER_GetInterruptPendingNumber
                0x80108dfc                NX_TIMER_SetInterruptEnable32
                0x80108ef0                NX_TIMER_GetInterruptPendingAll
                0x80108da0                NX_TIMER_CheckBusy
                0x80108db0                NX_TIMER_GetInterruptNumber
                0x80108f90                NX_TIMER_SetClockDivisorEnable
                0x80108e74                NX_TIMER_ClearInterruptPending
                0x80108d80                NX_TIMER_GetBaseAddress
                0x8010910c                NX_TIMER_GetTimerCounter
                0x80108e58                NX_TIMER_GetInterruptPending32
                0x80108ed4                NX_TIMER_GetInterruptEnableAll
                0x801090f8                NX_TIMER_SetTimerCounter
                0x80108d10                NX_TIMER_Initialize
                0x801090d0                NX_TIMER_SetMatchCounter
                0x80109070                NX_TIMER_Stop
                0x80108d70                NX_TIMER_SetBaseAddress
                0x80108f48                NX_TIMER_SetClockPClkMode
                0x80108d90                NX_TIMER_OpenModule
                0x80108e90                NX_TIMER_ClearInterruptPending32
                0x80108dc0                NX_TIMER_SetInterruptEnable
                0x80108de0                NX_TIMER_GetInterruptEnable
                0x80108e20                NX_TIMER_GetInterruptEnable32
                0x801090b0                NX_TIMER_SetTClkDivider
                0x80109008                NX_TIMER_SetClockDivisor
                0x80108fcc                NX_TIMER_SetClockSource
                0x80109050                NX_TIMER_Run
                0x80109030                NX_TIMER_GetClockDivisor
                0x80108fec                NX_TIMER_GetClockSource
                0x80108eb4                NX_TIMER_SetInterruptEnableAll
                0x80108f0c                NX_TIMER_ClearInterruptPendingAll
                0x8010908c                NX_TIMER_SetWatchDogEnable
                0x80108fb0                NX_TIMER_GetClockDivisorEnable
                0x80108da8                NX_TIMER_CanPowerDown
                0x80108d98                NX_TIMER_CloseModule
                0x80108d58                NX_TIMER_GetPhysicalAddress
                0x80108d68                NX_TIMER_GetSizeOfRegisterSet
                0x80108d50                NX_TIMER_GetNumberOfModule
                0x80108f74                NX_TIMER_GetClockPClkMode
                0x801090e4                NX_TIMER_GetMatchCounter
 .text          0x80109130     0x1294 arch/arm/cpu/arm1176/nxp2120/libnxp2120.a(nx_uart.o)
                0x801092b0                NX_UART_GetInterruptEnable32
                0x80109d08                NX_UART_GetModemStatus
                0x80109b10                NX_UART_SetSCTxMode
                0x80109394                NX_UART_GetInterruptPendingAll
                0x80109a00                NX_UART_IsTxFIFOReset
                0x80109794                NX_UART_SetTxIRQType
                0x80109220                NX_UART_CheckBusy
                0x80109354                NX_UART_SetInterruptEnableAll
                0x80109764                NX_UART_GetRxTimeOut
                0x80109f40                NX_UART_SetBaudRateConfig
                0x80109734                NX_UART_GetRxTimeOutEnb
                0x8010a1f8                NX_UART_GetBaudRateConfig
                0x8010a338                NX_UART_SetINTCON
                0x8010a2d4                NX_UART_SetLCON
                0x801094e0                NX_UART_SetClockDivisor
                0x801092cc                NX_UART_GetInterruptPending
                0x80109860                NX_UART_GetTxOperationMode
                0x80109a78                NX_UART_GetFIFOEnb
                0x8010a310                NX_UART_SetMCON
                0x80109374                NX_UART_GetInterruptEnableAll
                0x80109af4                NX_UART_GetSCRxEnb
                0x801094a4                NX_UART_SetClockSource
                0x8010962c                NX_UART_SetFrameConfiguration
                0x80109c88                NX_UART_SetAutoFlowControl
                0x80109418                NX_UART_GetDMAIndex_Tx
                0x8010956c                NX_UART_SetSIRMode
                0x80109a90                NX_UART_SetSCTxEnb
                0x801095d0                NX_UART_GetLoopBackMode
                0x80109c30                NX_UART_GetDTR
                0x801091e0                NX_UART_CloseModule
                0x80109c0c                NX_UART_SetDTR
                0x80109d20                NX_UART_SendByte
                0x80109160                NX_UART_GetNumberOfModule
                0x80109168                NX_UART_GetPhysicalAddress
                0x80109b60                NX_UART_GetSCMode
                0x8010a374                NX_UART_GetFCON
                0x8010a3b0                NX_UART_GetINTCON
                0x801092e8                NX_UART_GetInterruptPending32
                0x8010a388                NX_UART_GetMCON
                0x80109508                NX_UART_GetClockDivisor
                0x80109db4                NX_UART_SetControlConfig
                0x80109750                NX_UART_SetRxTimeOut
                0x801091a0                NX_UART_OpenModule
                0x80109274                NX_UART_GetInterruptEnable
                0x8010981c                NX_UART_SendBreak
                0x8010a21c                NX_UART_GetModemConfig
                0x80109b38                NX_UART_SetSCRxMode
                0x80109610                NX_UART_GetIntEnbWhenExceptionOccur
                0x8010a2e8                NX_UART_SetUCON
                0x80109550                NX_UART_GetClockDivisorEnable
                0x80109900                NX_UART_GetTxFIFOTriggerLevel
                0x801099e4                NX_UART_ResetTxFIFO
                0x80109530                NX_UART_SetClockDivisorEnable
                0x8010a2fc                NX_UART_SetFCON
                0x80109cec                NX_UART_GetHalfChannelEnable
                0x801096a8                NX_UART_SetBRD
                0x80109190                NX_UART_GetBaseAddress
                0x80109bac                NX_UART_GetFIFOStatus
                0x801098bc                NX_UART_SetTxFIFOTriggerLevel
                0x80109a38                NX_UART_IsRxFIFOReset
                0x8010a34c                NX_UART_GetLCON
                0x80109240                NX_UART_SetInterruptEnable
                0x80109d4c                NX_UART_SetLineConfig
                0x80109bc8                NX_UART_GetTxFIFOCount
                0x8010a0f8                NX_UART_GetFIFOConfig
                0x80109bec                NX_UART_GetRxFIFOCount
                0x80109a54                NX_UART_SetFIFOEnb
                0x801094c4                NX_UART_GetClockSource
                0x80109b94                NX_UART_GetErrorStatus
                0x80109e60                NX_UART_SetFIFOConfig
                0x80109ab4                NX_UART_GetSCTxEnb
                0x80109300                NX_UART_ClearInterruptPending
                0x8010a098                NX_UART_GetControlConfig
                0x801097bc                NX_UART_GetTxIRQType
                0x8010987c                NX_UART_SetRxOperationMode
                0x80109838                NX_UART_SetTxOperationMode
                0x80109944                NX_UART_SetRxFIFOTriggerLevel
                0x801093cc                NX_UART_GetInterruptPendingNumber
                0x80109704                NX_UART_SetRxTimeOutEnb
                0x80109230                NX_UART_GetInterruptNumber
                0x801096d0                NX_UART_MakeBRD
                0x8010a360                NX_UART_GetUCON
                0x80109178                NX_UART_GetSizeOfRegisterSet
                0x80109ad0                NX_UART_SetSCRxEnb
                0x80109488                NX_UART_GetClockPClkMode
                0x80109f5c                NX_UART_SetModemConfig
                0x801095ec                NX_UART_SetIntEnbWhenExceptionOccur
                0x80109800                NX_UART_GetRxIRQType
                0x80109454                NX_UART_GetDMABusWidth
                0x801097d8                NX_UART_SetRxIRQType
                0x8010a324                NX_UART_SetTIMEOUT
                0x80109130                NX_UART_Initialize
                0x8010945c                NX_UART_SetClockPClkMode
                0x80109cac                NX_UART_GetAutoFlowControl
                0x80109228                NX_UART_CanPowerDown
                0x80109988                NX_UART_GetRxFIFOTriggerLevel
                0x80109d34                NX_UART_GetByte
                0x80109c4c                NX_UART_SetRTS
                0x80109294                NX_UART_SetInterruptEnable32
                0x80109c70                NX_UART_GetRTS
                0x801095ac                NX_UART_SetLoopBackMode
                0x80109180                NX_UART_SetBaseAddress
                0x8010a39c                NX_UART_GetTIMEOUT
                0x80109590                NX_UART_GetSIRMode
                0x80109cc8                NX_UART_SetHalfChannelEnable
                0x8010932c                NX_UART_ClearInterruptPending32
                0x8010a024                NX_UART_GetLineConfig
                0x80109444                NX_UART_GetDMAIndex_Rx
                0x80109b7c                NX_UART_GetTxRxStatus
                0x801093b0                NX_UART_ClearInterruptPendingAll
                0x80109778                NX_UART_SetSYNCPendClear
                0x80109664                NX_UART_GetFrameConfiguration
                0x801096bc                NX_UART_GetBRD
                0x80109a1c                NX_UART_ResetRxFIFO
                0x801098a4                NX_UART_GetRxOperationMode
 .text          0x8010a3c4       0x1c arch/arm/cpu/arm1176/nxp2120/libnxp2120.a(reset.o)
                0x8010a3c4                reset_cpu
 .text          0x8010a3e0      0x280 arch/arm/lib/libarm.a(board.o)
                0x8010a3f8                __yellow_LED_off
                0x8010a3ec                green_LED_on
                0x8010a404                hang
                0x8010a3ec                __green_LED_on
                0x8010a3f4                __yellow_LED_on
                0x8010a3f4                yellow_LED_on
                0x8010a3f0                __green_LED_off
                0x8010a3e8                __red_LED_off
                0x8010a4dc                start_armboot
                0x8010a400                blue_LED_off
                0x8010a3e0                coloured_LED_init
                0x8010a400                __blue_LED_off
                0x8010a3fc                blue_LED_on
                0x8010a3f8                yellow_LED_off
                0x8010a3e8                red_LED_off
                0x8010a3f0                green_LED_off
                0x8010a3e0                __coloured_LED_init
                0x8010a3e4                red_LED_on
                0x8010a3fc                __blue_LED_on
                0x8010a3e4                __red_LED_on
 .text          0x8010a660      0x26c arch/arm/lib/libarm.a(interrupts.o)
                0x8010a7f4                do_fiq
                0x8010a8a8                do_undefined_instruction
                0x8010a66c                show_regs
                0x8010a7d0                do_irq
                0x8010a7ac                bad_mode
                0x8010a860                do_prefetch_abort
                0x8010a664                disable_interrupts
                0x8010a818                do_not_used
                0x8010a83c                do_data_abort
                0x8010a884                do_software_interrupt
                0x8010a660                enable_interrupts
 .text          0x8010a8cc      0x878 net/libnet.a(eth.o)
                0x8010aa3c                eth_get_dev_by_name
                0x8010a978                eth_halt
                0x8010a8cc                cpu_eth_init
                0x8010ac0c                eth_register
                0x8010ad48                eth_getenv_enetaddr
                0x8010a8d4                eth_get_dev
                0x8010ace0                eth_parse_enetaddr
                0x8010ab50                eth_try_another
                0x8010ada0                eth_getenv_enetaddr_by_index
                0x8010aec4                eth_initialize
                0x8010aa90                eth_set_current
                0x8010a9e8                eth_rx
                0x8010a924                eth_get_dev_index
                0x8010adec                eth_init
                0x8010aca8                eth_setenv_enetaddr
                0x8010aa1c                eth_get_name
                0x8010a8e4                eth_get_dev_by_index
                0x8010a9ac                eth_send
 .text          0x8010b144     0x1718 net/libnet.a(net.o)
                0x8010b16c                NetCksumOk
                0x8010b3e4                NetSetTimeout
                0x8010b20c                copy_filename
                0x8010b2d8                NetEthHdrSize
                0x8010b368                ip_to_string
                0x8010c2fc                ArpTimeoutCheck
                0x8010b644                NetReceive
                0x8010c034                NetSendUDPPacket
                0x8010b554                NetSetEther
                0x8010c398                NetLoop
                0x8010bce4                ArpRequest
                0x8010b3c0                random_port
                0x8010b31c                VLAN_to_string
                0x8010b2c0                getenv_VLAN
                0x8010b1c4                NetCksum
                0x8010b420                NetSetIP
                0x8010b264                string_to_VLAN
                0x8010c1cc                NetStartAgain
                0x8010b15c                NetSetHandler
                0x8010be24                PingSend
                0x8010b640                NetSendPacket
 .text          0x8010c85c     0x10b0 net/libnet.a(nfs.o)
                0x8010d184                NfsStart
 .text          0x8010d90c      0x1d0 net/libnet.a(rarp.o)
                0x8010d90c                RarpRequest
 .text          0x8010dadc      0x8e0 net/libnet.a(tftp.o)
                0x8010dcac                TftpStart
 .text          0x8010e3bc      0xa38 net/libnet.a(bootp.o)
                0x8010e9d0                DhcpRequest
                0x8010e7b4                BootpRequest
 .text          0x8010edf4     0x11e8 drivers/mmc/libmmc.a(mmc.o)
                0x8010f17c                cpu_mmc_init
                0x8010ee4c                mmc_send_ext_csd
                0x8010efc0                sd_switch
                0x8010f74c                mmc_startup
                0x8010edf4                __board_mmc_getcd
                0x8010f184                print_mmc_devices
                0x8010ee14                mmc_set_blocklen
                0x8010edfc                mmc_send_cmd
                0x8010f048                mmc_set_clock
                0x8010ff3c                mmc_init
                0x8010fe88                mmc_send_op_cond
                0x8010f114                mmc_register
                0x8010f368                mmc_get_dev
                0x8010fd28                sd_send_op_cond
                0x8010eea0                mmc_switch
                0x8010f030                mmc_set_ios
                0x8010eee8                mmc_change_freq
                0x8010edf4                board_mmc_getcd
                0x8010f238                mmc_read_blocks
                0x8010f07c                mmc_set_bus_width
                0x8010f314                find_mmc_device
                0x8010fe34                mmc_go_idle
                0x8010f098                mmc_send_if_cond
                0x8010f55c                sd_change_freq
                0x8010f1ec                mmc_initialize
 .text          0x8010ffdc       0xc4 drivers/mtd/nand/libnand.a(nand.o)
                0x8010ffdc                nand_init
 .text          0x801100a0     0x3f38 drivers/mtd/nand/libnand.a(nand_base.o)
                0x8011337c                nand_wait_ready
                0x801115c0                nand_scan_ident
                0x8011233c                nand_scan
                0x80112e7c                nand_erase_nand
                0x80111d54                nand_scan_tail
                0x80111558                nand_release
 .text          0x80113fd8     0x2038 drivers/mtd/nand/libnand.a(nand_bbt.o)
                0x8011420c                nand_isbad_bbt
                0x80115ef4                nand_default_bbt
                0x80114cf0                nand_update_bbt
                0x80115a28                nand_scan_bbt
 .text          0x80116010      0x224 drivers/mtd/nand/libnand.a(nand_ecc.o)
                0x80116108                nand_correct_data
                0x80116010                nand_calculate_ecc
 .text          0x80116234        0x0 drivers/mtd/nand/libnand.a(nand_ids.o)
 .text          0x80116234       0xf4 common/libcommon.a(cmd_bdinfo.o)
                0x80116234                do_bdinfo
 .text          0x80116328       0x98 common/libcommon.a(cmd_boot.o)
                0x80116348                do_go
                0x80116328                do_go_exec
 .text          0x801163c0      0xc64 common/libcommon.a(cmd_bootm.o)
                0x8011651c                do_bootd
                0x80116d94                do_bootm
                0x80116be8                do_bootm_subcommand
                0x801163c0                __arch_preboot_os
                0x801164b0                do_iminfo
 .text          0x80117024       0xe8 common/libcommon.a(cmd_console.o)
                0x80117024                do_coninfo
 .text          0x8011710c       0x80 common/libcommon.a(cmd_echo.o)
                0x8011710c                do_echo
 .text          0x8011718c       0x38 common/libcommon.a(cmd_exit.o)
                0x8011718c                do_exit
 .text          0x801171c4      0x890 common/libcommon.a(cmd_falinux.o)
 .text          0x80117a54      0x374 common/libcommon.a(cmd_fat.o)
                0x80117c44                do_fat_fsload
                0x80117a54                do_fat_fsinfo
                0x80117b34                do_fat_ls
 .text          0x80117dc8       0x74 common/libcommon.a(cmd_flash.o)
                0x80117dc8                do_flinfo
                0x80117dd8                do_protect
                0x80117dd0                do_flerase
 .text          0x80117e3c       0x54 common/libcommon.a(cmd_help.o)
                0x80117e3c                do_help
 .text          0x80117e90      0x30c common/libcommon.a(cmd_itest.o)
                0x80117efc                binary_test
                0x80118100                do_itest
 .text          0x8011819c      0xf30 common/libcommon.a(cmd_load.o)
                0x80118240                k_data_init
                0x801183d4                s1_sendpacket
                0x80118408                handle_send_packet
                0x801182bc                k_data_restore
                0x80118644                send_nack
                0x80118878                do_load_serial_bin
                0x80118308                k_data_char
                0x801181bc                chk1
                0x80118270                k_data_save
                0x8011819c                ktrans
                0x80118398                send_pad
                0x801186c4                send_ack
                0x80118fe4                do_load_serial
 .text          0x801190cc      0x9a0 common/libcommon.a(cmd_mem.o)
                0x80119178                do_mem_base
                0x801196e8                do_mem_mw
                0x801190cc                do_mem_crc
                0x80119928                do_mem_nm
                0x80119950                do_mem_mm
                0x8011946c                do_mem_cp
                0x801191c4                do_mem_mtest
                0x80119548                do_mem_cmp
                0x80119374                do_mem_loop
                0x80119978                do_mem_md
 .text          0x80119a6c       0x88 common/libcommon.a(cmd_misc.o)
                0x80119a6c                do_sleep
 .text          0x80119af4      0x454 common/libcommon.a(cmd_mmc.o)
                0x80119c3c                do_mmcops
                0x80119af4                do_mmcinfo
 .text          0x80119f48      0xfd4 common/libcommon.a(cmd_nand.o)
                0x80119fac                do_nandboot
                0x8011a690                do_nand
 .text          0x8011af1c      0x3d8 common/libcommon.a(cmd_net.o)
                0x8011b2d0                do_rarpb
                0x8011af1c                do_ping
                0x8011b2dc                do_tftpb
                0x8011b2c4                do_dhcp
                0x8011b2e8                do_bootp
                0x8011b2b8                do_nfs
 .text          0x8011b2f4      0x8a4 common/libcommon.a(cmd_nvedit.o)
                0x8011b444                getenv
                0x8011b4c0                _do_setenv
                0x8011b364                getenv_r
                0x8011bb04                do_printenv
                0x8011b950                setenv
                0x8011b2f4                get_env_id
                0x8011b410                do_saveenv
                0x8011b918                do_setenv
                0x8011b9a0                do_editenv
                0x8011b304                envmatch
 .text          0x8011bb98      0x1a4 common/libcommon.a(cmd_source.o)
                0x8011bb98                source
                0x8011bcf4                do_source
 .text          0x8011bd3c      0x48c common/libcommon.a(cmd_test.o)
                0x8011bd4c                do_test
                0x8011bd3c                do_false
                0x8011bd44                do_true
 .text          0x8011c1c8     0x11ac common/libcommon.a(cmd_usb.o)
                0x8011ccf0                usb_display_conf_desc
                0x8011c87c                usb_show_tree_graph
                0x8011c1c8                usb_get_class_desc
                0x8011c270                usb_display_ep_desc
                0x8011cae0                usb_display_desc
                0x8011c344                usb_display_class_sub
                0x8011caac                usb_show_tree
                0x8011cc18                usb_display_string
                0x8011cc58                usb_display_if_desc
                0x8011cda0                usb_display_config
                0x8011c4c4                do_usbboot
                0x8011ce30                do_usb
 .text          0x8011d374       0x28 common/libcommon.a(cmd_version.o)
                0x8011d374                do_version
 .text          0x8011d39c      0x2d8 common/libcommon.a(cmd_ximg.o)
                0x8011d39c                do_imgextract
 .text          0x8011d674      0x120 common/libcommon.a(cmd_zmac.o)
 .text          0x8011d794      0x32c common/libcommon.a(command.o)
                0x8011d874                find_cmd_tbl
                0x8011d814                cmd_usage
                0x8011d914                find_cmd
                0x8011d794                cmd_get_data_size
                0x8011d93c                _do_help
 .text          0x8011dac0      0x5a0 common/libcommon.a(console.o)
                0x8011de84                console_init_r
                0x8011dd80                printf
                0x8011dcb0                console_assign
                0x8011dfe8                getc
                0x8011dc88                search_device
                0x8011dd34                puts
                0x8011dc6c                dbg
                0x8011df74                serial_printf
                0x8011db98                ftstc
                0x8011dcf0                fprintf
                0x8011dfd0                tstc
                0x8011dd50                vprintf
                0x8011e000                ctrlc
                0x8011dfb4                putc
                0x8011dc30                disable_ctrlc
                0x8011db68                fgetc
                0x8011dc48                had_ctrlc
                0x8011dbc8                fputc
                0x8011dc78                console_init_f
                0x8011dc58                clear_ctrlc
                0x8011ddc0                stdio_print_current_devices
                0x8011dbfc                fputs
 .text          0x8011e060     0x11f4 common/libcommon.a(dlmalloc.o)
                0x8011e41c                malloc
                0x8011ebc0                pvalloc
                0x8011ec9c                calloc
                0x8011ebe4                malloc_usable_size
                0x8011ed84                mem_malloc_init
                0x8011edc4                realloc
                0x8011e0a8                malloc_trim
                0x8011e060                sbrk
                0x8011ec28                mallopt
                0x8011eaa4                memalign
                0x8011e418                cfree
                0x8011ebd8                valloc
                0x8011e1dc                free
 .text          0x8011f254      0x154 common/libcommon.a(env_common.o)
                0x8011f294                env_get_char
                0x8011f274                env_get_addr
                0x8011f304                set_default_env
                0x8011f348                env_relocate
                0x8011f2d8                env_crc_update
                0x8011f254                env_get_char_memory
 .text          0x8011f3a8      0x2ac common/libcommon.a(env_nand.o)
                0x8011f550                env_relocate_spec
                0x8011f5a8                saveenv
                0x8011f3a8                env_get_char_spec
                0x8011f3b4                env_init
                0x8011f3d0                writeenv
                0x8011f490                readenv
 .text          0x8011f654      0x194 common/libcommon.a(exports.o)
                0x8011f660                jumptable_init
                0x8011f658                get_version
 .text          0x8011f7e8     0x1ed8 common/libcommon.a(hush.o)
                0x8011fa0c                new_pipe
                0x8011f870                mapset
                0x80120d78                parse_string_outer
                0x80120618                update_ifs_map
                0x80120468                set_local_var
                0x80120d30                parse_file_outer
                0x8011f7e8                simple_itoa
                0x8011fce8                unset_local_var
                0x8011f898                do_showvar
                0x8011fec8                reserved_word
                0x8011f984                u_boot_hush_start
 .text          0x801216c0      0x964 common/libcommon.a(image.o)
                0x80121cbc                getenv_bootm_size
                0x801219fc                image_print_contents
                0x80121858                genimg_get_comp_id
                0x801218a0                genimg_get_os_id
                0x801216e4                get_table_entry_name
                0x80121800                genimg_has_config
                0x80121888                genimg_get_arch_id
                0x80121748                genimg_get_arch_name
                0x80121dac                boot_get_ramdisk
                0x80121d44                image_check_hcrc
                0x8012170c                genimg_get_os_name
                0x80121784                genimg_get_type_name
                0x801218b8                genimg_get_format
                0x801217c0                genimg_get_comp_name
                0x80121cf8                image_check_dcrc
                0x801219cc                genimg_print_size
                0x80121c50                getenv_bootm_low
                0x801217fc                genimg_get_image
                0x80121870                genimg_get_type_id
                0x801216c0                image_multi_count
                0x80121c44                memmove_wd
                0x80121808                get_table_entry_id
                0x8012190c                image_multi_getimg
                0x80121c90                getenv_yesno
 .text          0x80122024     0x10f4 common/libcommon.a(main.o)
                0x80122024                __show_boot_progress
                0x80122124                run_command
                0x801220b4                do_run
                0x80122028                parse_line
                0x80122fdc                readline
                0x80122024                show_boot_progress
                0x80122ff4                main_loop
                0x8012272c                readline_into_buffer
 .text          0x80123118      0x300 common/libcommon.a(s_record.o)
                0x801231a0                srec_decode
 .text          0x80123418      0x180 common/libcommon.a(stdio.o)
                0x80123424                stdio_clone
                0x80123418                stdio_get_list
                0x80123544                stdio_get_by_name
                0x801234b8                stdio_init
                0x80123474                stdio_register
 .text          0x80123598     0x1758 common/libcommon.a(usb.o)
                0x801240d4                usb_set_idle
                0x801235b0                usb_maxpacket
                0x801248d8                usb_hub_probe
                0x80123930                usb_stop
                0x80124c5c                usb_init
                0x80123598                usb_disable_asynch
                0x80124420                usb_clear_halt
                0x80123990                usb_bulk_msg
                0x80123ff4                usb_get_class_descriptor
                0x80124be4                usb_scan_devices
                0x80123d08                usb_get_hub_descriptor
                0x80123b38                usb_get_port_status
                0x8012392c                usb_submit_int_msg
                0x801237e0                usb_parse_config
                0x801239fc                usb_control_msg
                0x80124138                usb_set_protocol
                0x801245c0                usb_hub_port_connect_change
                0x80124200                usb_set_interface
                0x801236ec                usb_hub_allocate
                0x80123ef0                usb_string
                0x80124064                usb_get_report
                0x80124314                usb_get_descriptor
                0x801246c0                usb_hub_configure
                0x80123d68                usb_get_string
                0x80123ae8                usb_hub_clear_tt_buffer
                0x8012396c                wait_ms
                0x80123cb0                usb_clear_hub_feature
                0x80124380                usb_get_configuration_no
                0x80123c50                usb_clear_port_feature
                0x80123bf0                usb_set_port_feature
                0x80124938                usb_new_device
                0x80123b98                usb_get_hub_status
                0x80124198                usb_set_configuration
                0x8012364c                usb_set_maxpacket
                0x801242cc                usb_set_address
                0x80123738                usb_alloc_new_device
                0x801236d8                usb_hub_reset
                0x801236b0                usb_get_dev_index
 .text          0x80124cf0     0x1610 common/libcommon.a(usb_storage.o)
                0x80125100                usb_storage_probe
                0x80126090                usb_stor_CB_transport
                0x80125ae0                usb_stor_CB_comdat
                0x80125548                usb_stor_write
                0x80124cf0                usb_stor_get_dev
                0x80125760                usb_stor_read
                0x80124d38                usb_show_progress
                0x80125978                usb_stor_scan
                0x80125d10                usb_stor_BBB_comdat
                0x8012628c                usb_stor_info
                0x80124e1c                usb_stor_get_info
                0x8012532c                usb_stor_BBB_clear_endpt_stall
                0x80125fb8                usb_stor_CBI_get_status
                0x80125dec                usb_stor_BBB_transport
 .text          0x80126300      0x9a8 common/libcommon.a(xyzModem.o)
                0x80126428                xyzModem_error
                0x801264c4                xyzModem_stream_close
                0x80126520                CYGACC_COMM_IF_GETC_TIMEOUT
                0x80126300                parse_num
                0x80126574                xyzModem_stream_terminate
                0x80126b4c                xyzModem_stream_open
                0x80126518                CYGACC_COMM_IF_PUTC
                0x801268f8                xyzModem_stream_read
 .text          0x80126ca8      0x894 board/nxp2120/dtk/libdtk.a(board.o)
                0x80127524                board_eth_init
                0x80126ca8                board_init
                0x80126f48                board_late_init
 .text          0x8012753c      0x7b4 board/nxp2120/dtk/libdtk.a(logo.o)
                0x801275dc                PutPixel565To888
                0x80127660                PutPixel565To8888
                0x80127630                PutPixel888To8888
                0x80127598                PutPixel565To565
                0x801275ac                PutPixel888To888
                0x8012756c                PutPixel555To565
                0x80127988                nx_boot_logo
                0x8012753c                PutPixel888To565
 .text          0x80127cf0       0x48 lib/libgeneric.a(crc16.o)
                0x80127cf0                cyg_crc16
 .text          0x80127d38      0x114 lib/libgeneric.a(crc32.o)
                0x80127e2c                crc32
                0x80127e48                crc32_wd
                0x80127d38                crc32_no_comp
 .text          0x80127e4c        0x0 lib/libgeneric.a(ctype.o)
 .text          0x80127e4c      0x2d4 lib/libgeneric.a(display_options.o)
                0x80127fc0                print_buffer
                0x80127f98                display_options
                0x80127e4c                print_size
 .text          0x80128120      0x1c0 lib/libgeneric.a(div64.o)
                0x80128120                __div64_32
                0x80128214                div64_u64
 .text          0x801282e0      0x1dc lib/libgeneric.a(gunzip.o)
                0x801283d4                gunzip
                0x801284a4                zfree
                0x801282e0                zunzip
                0x801284ac                zalloc
 .text          0x801284bc       0x84 lib/libgeneric.a(net_utils.o)
                0x801284bc                string_to_ip
 .text          0x80128540      0x738 lib/libgeneric.a(string.o)
                0x80128540                strcpy
                0x80128b2c                memscan
                0x80128a90                memmove
                0x80128a14                memcpy
                0x80128924                strswab
                0x80128738                strnlen
                0x801286d0                strrchr
                0x80128584                strcat
                0x80128be0                memchr
                0x80128b5c                strstr
                0x80128654                strncmp
                0x8012855c                strncpy
                0x801289e8                bcopy
                0x801287e4                strtok
                0x80128aec                memcmp
                0x801285b8                strncat
                0x80128c10                strdup
                0x80128970                memset
                0x8012861c                strcmp
                0x801288bc                strsep
                0x80128760                strspn
                0x80128718                strlen
                0x801286a4                strchr
                0x801287a4                strpbrk
 .text          0x80128c78       0x30 lib/libgeneric.a(time.o)
                0x80128c78                udelay
 .text          0x80128ca8      0xea4 lib/libgeneric.a(vsprintf.o)
                0x80129464                vsprintf
                0x80128d94                ustrtoul
                0x80128d60                simple_strtol
                0x80128fc8                panic
                0x80129b2c                sprintf
                0x80128ca8                simple_strtoul
                0x80128e08                simple_strtoull
 .text          0x80129b4c     0x28bc lib/libgeneric.a(zlib.o)
                0x8012ac2c                inflate
                0x80129b4c                inflate_fast
                0x8012a840                inflateInit_
                0x8012a8e0                adler32
                0x8012ac1c                zcfree
                0x8012a690                inflateReset
                0x8012ac24                zcalloc
                0x8012a850                inflateEnd
                0x8012a72c                inflateInit2_
                0x8012a0dc                inflate_table
 .text          0x8012c408      0x2ac arch/arm/cpu/arm1176/nxp2120/libnxp2120.a(timer.o)
                0x8012c620                __udelay
                0x8012c408                set_timer
                0x8012c54c                reset_timer
                0x8012c418                get_tbclk
                0x8012c4f8                get_timer
                0x8012c518                reset_timer_masked
                0x8012c550                timer_init
                0x8012c424                get_timer_masked
                0x8012c498                udelay_masked
                0x8012c480                get_ticks
 .text          0x8012c6b4      0x190 arch/arm/cpu/arm1176/nxp2120/libnxp2120.a(nand.o)
                0x8012c6b4                nand_dev_check
                0x8012c6b8                board_nand_init
 .text          0x8012c844     0x1080 arch/arm/cpu/arm1176/nxp2120/libnxp2120.a(nand_ecc.o)
                0x8012d698                nand_hw_ecc_check
                0x8012c88c                NX_NAND_CreateLookupTable
                0x8012c99c                NX_NAND_WaitForDecoding
                0x8012c9e4                NX_NAND_GetOddSyndrome
                0x8012d074                NX_NAND_GetGenECC
                0x8012c9cc                NX_NAND_GetErrorStatus
                0x8012cfe0                NX_NAND_SetOriECC
                0x8012ca1c                NX_NAND_GetErrorLocation
                0x8012c9b4                NX_NAND_WaitForEncoding
                0x8012d62c                nand_hw_ecc_init
                0x8012c96c                NX_NAND_SetResetECC
 .text          0x8012d8c4      0x15c arch/arm/lib/libarm.a(bootm.o)
                0x8012d8c4                do_bootm_linux
 .text          0x8012da20        0x4 arch/arm/lib/libarm.a(cache.o)
                0x8012da20                flush_cache
 .text          0x8012da24       0x38 arch/arm/lib/libarm.a(reset.o)
                0x8012da24                do_reset
 .text          0x8012da5c     0x1484 fs/fat/libfat.a(fat.o)
                0x8012ed74                file_fat_read
                0x8012e2e0                do_fat_read
                0x8012edac                file_fat_ls
                0x8012e180                file_fat_detectfs
                0x8012edbc                fat_register_device
 .text          0x8012eee0      0x39c disk/libdisk.a(part.o)
                0x8012efc8                dev_print
                0x8012eee0                print_part
                0x8012f21c                get_dev
                0x8012f1d4                get_partition_info
                0x8012f200                init_part
 .text          0x8012f27c      0x568 disk/libdisk.a(part_dos.o)
                0x8012f554                get_partition_info_dos
                0x8012f7b8                print_part_dos
                0x8012f27c                test_part_dos
 .text          0x8012f7e4      0x940 drivers/mtd/nand/libnand.a(nand_util.o)
                0x8012facc                nand_write_skip_bad
                0x8012f7ec                nand_read_skip_bad
                0x8012fdac                nand_erase_opts
 .text          0x80130124      0x9f8 drivers/net/libnet.a(dm9000x.o)
                0x801308e8                dm9000_write_srom_word
                0x801309b4                dm9000_initialize
                0x80130950                dm9000_read_srom_word
 .text          0x80130b1c      0xca0 drivers/usb/host/libusb_host.a(ehci-hcd.o)
                0x8013122c                usb_lowlevel_stop
                0x80131230                ehci_submit_root
                0x80130b1c                submit_int_msg
                0x8013101c                submit_bulk_msg
                0x80131754                submit_control_msg
                0x80131048                usb_lowlevel_init
 .text          0x801317bc      0x158 drivers/usb/host/libusb_host.a(ehci-nxp2120.o)
                0x801317bc                ehci_hcd_stop
                0x801317c4                ehci_hcd_init
 .text          0x80131914       0x2c arch/arm/cpu/arm1176/libarm1176.a(cpu.o)
                0x80131914                cleanup_before_linux
 .text          0x80131940      0x120 arch/arm/lib/libarm.a(cache-cp15.o)
                0x801319d0                dcache_enable
                0x80131940                icache_enable
                0x80131980                icache_disable
                0x80131a50                dcache_status
                0x801319c0                icache_status
                0x80131a10                dcache_disable
 .text          0x80131a60       0x28 /staff/I15-0248_webcon_u-boot/bootloader/arch/arm/lib/eabi_compat.o
                0x80131a60                __aeabi_unwind_cpp_pr0
                0x80131a64                raise
 .text          0x80131a88       0xc4 /usr/lib/gcc/arm-generic-linux-gnueabi/4.3.2/libgcc.a(_udivsi3.o)
                0x80131a88                __udivsi3
                0x80131a88                __aeabi_uidiv
                0x80131b34                __aeabi_uidivmod
 .text          0x80131b4c       0xf4 /usr/lib/gcc/arm-generic-linux-gnueabi/4.3.2/libgcc.a(_divsi3.o)
                0x80131b4c                __aeabi_idiv
                0x80131b4c                __divsi3
                0x80131c28                __aeabi_idivmod
 .text          0x80131c40       0x1c /usr/lib/gcc/arm-generic-linux-gnueabi/4.3.2/libgcc.a(_lshrdi3.o)
                0x80131c40                __aeabi_llsr
                0x80131c40                __lshrdi3
 .text          0x80131c5c       0x1c /usr/lib/gcc/arm-generic-linux-gnueabi/4.3.2/libgcc.a(_ashrdi3.o)
                0x80131c5c                __ashrdi3
                0x80131c5c                __aeabi_lasr
 .text          0x80131c78       0x1c /usr/lib/gcc/arm-generic-linux-gnueabi/4.3.2/libgcc.a(_ashldi3.o)
                0x80131c78                __ashldi3
                0x80131c78                __aeabi_llsl
 .text          0x80131c94       0x10 /usr/lib/gcc/arm-generic-linux-gnueabi/4.3.2/libgcc.a(_dvmd_lnx.o)
                0x80131c94                __div0

.glue_7         0x80131ca4        0x0
 .glue_7        0x80131ca4        0x0 arch/arm/cpu/arm1176/start.o
 .glue_7        0x80131ca4        0x0 arch/arm/cpu/arm1176/nxp2120/libnxp2120.a(cpu.o)
 .glue_7        0x80131ca4        0x0 arch/arm/cpu/arm1176/nxp2120/libnxp2120.a(nxp2120.o)
 .glue_7        0x80131ca4        0x0 arch/arm/cpu/arm1176/nxp2120/libnxp2120.a(wakeup.o)
 .glue_7        0x80131ca4        0x0 arch/arm/cpu/arm1176/nxp2120/libnxp2120.a(pm.o)
 .glue_7        0x80131ca4        0x0 arch/arm/cpu/arm1176/nxp2120/libnxp2120.a(serial.o)
 .glue_7        0x80131ca4        0x0 arch/arm/cpu/arm1176/nxp2120/libnxp2120.a(sdhc.o)
 .glue_7        0x80131ca4        0x0 arch/arm/cpu/arm1176/nxp2120/libnxp2120.a(cmd.o)
 .glue_7        0x80131ca4        0x0 arch/arm/cpu/arm1176/nxp2120/libnxp2120.a(cmd_udown.o)
 .glue_7        0x80131ca4        0x0 arch/arm/cpu/arm1176/nxp2120/libnxp2120.a(BootHeader.o)
 .glue_7        0x80131ca4        0x0 arch/arm/cpu/arm1176/nxp2120/libnxp2120.a(nx_alive.o)
 .glue_7        0x80131ca4        0x0 arch/arm/cpu/arm1176/nxp2120/libnxp2120.a(nx_clkpwr.o)
 .glue_7        0x80131ca4        0x0 arch/arm/cpu/arm1176/nxp2120/libnxp2120.a(nx_dpc.o)
 .glue_7        0x80131ca4        0x0 arch/arm/cpu/arm1176/nxp2120/libnxp2120.a(nx_gpio.o)
 .glue_7        0x80131ca4        0x0 arch/arm/cpu/arm1176/nxp2120/libnxp2120.a(nx_intc.o)
 .glue_7        0x80131ca4        0x0 arch/arm/cpu/arm1176/nxp2120/libnxp2120.a(nx_mcud.o)
 .glue_7        0x80131ca4        0x0 arch/arm/cpu/arm1176/nxp2120/libnxp2120.a(nx_mcus.o)
 .glue_7        0x80131ca4        0x0 arch/arm/cpu/arm1176/nxp2120/libnxp2120.a(nx_mlc.o)
 .glue_7        0x80131ca4        0x0 arch/arm/cpu/arm1176/nxp2120/libnxp2120.a(nx_pwm.o)
 .glue_7        0x80131ca4        0x0 arch/arm/cpu/arm1176/nxp2120/libnxp2120.a(nx_sdhc.o)
 .glue_7        0x80131ca4        0x0 arch/arm/cpu/arm1176/nxp2120/libnxp2120.a(nx_timer.o)
 .glue_7        0x80131ca4        0x0 arch/arm/cpu/arm1176/nxp2120/libnxp2120.a(nx_uart.o)
 .glue_7        0x80131ca4        0x0 arch/arm/cpu/arm1176/nxp2120/libnxp2120.a(reset.o)
 .glue_7        0x80131ca4        0x0 arch/arm/lib/libarm.a(board.o)
 .glue_7        0x80131ca4        0x0 arch/arm/lib/libarm.a(interrupts.o)
 .glue_7        0x80131ca4        0x0 net/libnet.a(eth.o)
 .glue_7        0x80131ca4        0x0 net/libnet.a(net.o)
 .glue_7        0x80131ca4        0x0 net/libnet.a(nfs.o)
 .glue_7        0x80131ca4        0x0 net/libnet.a(rarp.o)
 .glue_7        0x80131ca4        0x0 net/libnet.a(tftp.o)
 .glue_7        0x80131ca4        0x0 net/libnet.a(bootp.o)
 .glue_7        0x80131ca4        0x0 drivers/mmc/libmmc.a(mmc.o)
 .glue_7        0x80131ca4        0x0 drivers/mtd/nand/libnand.a(nand.o)
 .glue_7        0x80131ca4        0x0 drivers/mtd/nand/libnand.a(nand_base.o)
 .glue_7        0x80131ca4        0x0 drivers/mtd/nand/libnand.a(nand_bbt.o)
 .glue_7        0x80131ca4        0x0 drivers/mtd/nand/libnand.a(nand_ecc.o)
 .glue_7        0x80131ca4        0x0 drivers/mtd/nand/libnand.a(nand_ids.o)
 .glue_7        0x80131ca4        0x0 common/libcommon.a(cmd_bdinfo.o)
 .glue_7        0x80131ca4        0x0 common/libcommon.a(cmd_boot.o)
 .glue_7        0x80131ca4        0x0 common/libcommon.a(cmd_bootm.o)
 .glue_7        0x80131ca4        0x0 common/libcommon.a(cmd_console.o)
 .glue_7        0x80131ca4        0x0 common/libcommon.a(cmd_echo.o)
 .glue_7        0x80131ca4        0x0 common/libcommon.a(cmd_exit.o)
 .glue_7        0x80131ca4        0x0 common/libcommon.a(cmd_falinux.o)
 .glue_7        0x80131ca4        0x0 common/libcommon.a(cmd_fat.o)
 .glue_7        0x80131ca4        0x0 common/libcommon.a(cmd_flash.o)
 .glue_7        0x80131ca4        0x0 common/libcommon.a(cmd_help.o)
 .glue_7        0x80131ca4        0x0 common/libcommon.a(cmd_itest.o)
 .glue_7        0x80131ca4        0x0 common/libcommon.a(cmd_load.o)
 .glue_7        0x80131ca4        0x0 common/libcommon.a(cmd_mem.o)
 .glue_7        0x80131ca4        0x0 common/libcommon.a(cmd_misc.o)
 .glue_7        0x80131ca4        0x0 common/libcommon.a(cmd_mmc.o)
 .glue_7        0x80131ca4        0x0 common/libcommon.a(cmd_nand.o)
 .glue_7        0x80131ca4        0x0 common/libcommon.a(cmd_net.o)
 .glue_7        0x80131ca4        0x0 common/libcommon.a(cmd_nvedit.o)
 .glue_7        0x80131ca4        0x0 common/libcommon.a(cmd_source.o)
 .glue_7        0x80131ca4        0x0 common/libcommon.a(cmd_test.o)
 .glue_7        0x80131ca4        0x0 common/libcommon.a(cmd_usb.o)
 .glue_7        0x80131ca4        0x0 common/libcommon.a(cmd_version.o)
 .glue_7        0x80131ca4        0x0 common/libcommon.a(cmd_ximg.o)
 .glue_7        0x80131ca4        0x0 common/libcommon.a(cmd_zmac.o)
 .glue_7        0x80131ca4        0x0 common/libcommon.a(command.o)
 .glue_7        0x80131ca4        0x0 common/libcommon.a(console.o)
 .glue_7        0x80131ca4        0x0 common/libcommon.a(dlmalloc.o)
 .glue_7        0x80131ca4        0x0 common/libcommon.a(env_common.o)
 .glue_7        0x80131ca4        0x0 common/libcommon.a(env_nand.o)
 .glue_7        0x80131ca4        0x0 common/libcommon.a(exports.o)
 .glue_7        0x80131ca4        0x0 common/libcommon.a(hush.o)
 .glue_7        0x80131ca4        0x0 common/libcommon.a(image.o)
 .glue_7        0x80131ca4        0x0 common/libcommon.a(main.o)
 .glue_7        0x80131ca4        0x0 common/libcommon.a(s_record.o)
 .glue_7        0x80131ca4        0x0 common/libcommon.a(stdio.o)
 .glue_7        0x80131ca4        0x0 common/libcommon.a(usb.o)
 .glue_7        0x80131ca4        0x0 common/libcommon.a(usb_storage.o)
 .glue_7        0x80131ca4        0x0 common/libcommon.a(xyzModem.o)
 .glue_7        0x80131ca4        0x0 board/nxp2120/dtk/libdtk.a(board.o)
 .glue_7        0x80131ca4        0x0 board/nxp2120/dtk/libdtk.a(logo.o)
 .glue_7        0x80131ca4        0x0 lib/libgeneric.a(crc16.o)
 .glue_7        0x80131ca4        0x0 lib/libgeneric.a(crc32.o)
 .glue_7        0x80131ca4        0x0 lib/libgeneric.a(ctype.o)
 .glue_7        0x80131ca4        0x0 lib/libgeneric.a(display_options.o)
 .glue_7        0x80131ca4        0x0 lib/libgeneric.a(div64.o)
 .glue_7        0x80131ca4        0x0 lib/libgeneric.a(gunzip.o)
 .glue_7        0x80131ca4        0x0 lib/libgeneric.a(net_utils.o)
 .glue_7        0x80131ca4        0x0 lib/libgeneric.a(string.o)
 .glue_7        0x80131ca4        0x0 lib/libgeneric.a(time.o)
 .glue_7        0x80131ca4        0x0 lib/libgeneric.a(vsprintf.o)
 .glue_7        0x80131ca4        0x0 lib/libgeneric.a(zlib.o)
 .glue_7        0x80131ca4        0x0 arch/arm/cpu/arm1176/nxp2120/libnxp2120.a(timer.o)
 .glue_7        0x80131ca4        0x0 arch/arm/cpu/arm1176/nxp2120/libnxp2120.a(nand.o)
 .glue_7        0x80131ca4        0x0 arch/arm/cpu/arm1176/nxp2120/libnxp2120.a(nand_ecc.o)
 .glue_7        0x80131ca4        0x0 arch/arm/lib/libarm.a(bootm.o)
 .glue_7        0x80131ca4        0x0 arch/arm/lib/libarm.a(cache.o)
 .glue_7        0x80131ca4        0x0 arch/arm/lib/libarm.a(reset.o)
 .glue_7        0x80131ca4        0x0 fs/fat/libfat.a(fat.o)
 .glue_7        0x80131ca4        0x0 disk/libdisk.a(part.o)
 .glue_7        0x80131ca4        0x0 disk/libdisk.a(part_dos.o)
 .glue_7        0x80131ca4        0x0 drivers/mtd/nand/libnand.a(nand_util.o)
 .glue_7        0x80131ca4        0x0 drivers/net/libnet.a(dm9000x.o)
 .glue_7        0x80131ca4        0x0 drivers/usb/host/libusb_host.a(ehci-hcd.o)
 .glue_7        0x80131ca4        0x0 drivers/usb/host/libusb_host.a(ehci-nxp2120.o)
 .glue_7        0x80131ca4        0x0 arch/arm/cpu/arm1176/libarm1176.a(cpu.o)
 .glue_7        0x80131ca4        0x0 arch/arm/lib/libarm.a(cache-cp15.o)
 .glue_7        0x80131ca4        0x0 /staff/I15-0248_webcon_u-boot/bootloader/arch/arm/lib/eabi_compat.o
 .glue_7        0x80131ca4        0x0 /usr/lib/gcc/arm-generic-linux-gnueabi/4.3.2/libgcc.a(_udivsi3.o)
 .glue_7        0x80131ca4        0x0 /usr/lib/gcc/arm-generic-linux-gnueabi/4.3.2/libgcc.a(_divsi3.o)
 .glue_7        0x80131ca4        0x0 /usr/lib/gcc/arm-generic-linux-gnueabi/4.3.2/libgcc.a(_lshrdi3.o)
 .glue_7        0x80131ca4        0x0 /usr/lib/gcc/arm-generic-linux-gnueabi/4.3.2/libgcc.a(_ashrdi3.o)
 .glue_7        0x80131ca4        0x0 /usr/lib/gcc/arm-generic-linux-gnueabi/4.3.2/libgcc.a(_ashldi3.o)
 .glue_7        0x80131ca4        0x0 /usr/lib/gcc/arm-generic-linux-gnueabi/4.3.2/libgcc.a(_dvmd_lnx.o)

.glue_7t        0x80131ca4        0x0
 .glue_7t       0x80131ca4        0x0 arch/arm/cpu/arm1176/start.o
 .glue_7t       0x80131ca4        0x0 arch/arm/cpu/arm1176/nxp2120/libnxp2120.a(cpu.o)
 .glue_7t       0x80131ca4        0x0 arch/arm/cpu/arm1176/nxp2120/libnxp2120.a(nxp2120.o)
 .glue_7t       0x80131ca4        0x0 arch/arm/cpu/arm1176/nxp2120/libnxp2120.a(wakeup.o)
 .glue_7t       0x80131ca4        0x0 arch/arm/cpu/arm1176/nxp2120/libnxp2120.a(pm.o)
 .glue_7t       0x80131ca4        0x0 arch/arm/cpu/arm1176/nxp2120/libnxp2120.a(serial.o)
 .glue_7t       0x80131ca4        0x0 arch/arm/cpu/arm1176/nxp2120/libnxp2120.a(sdhc.o)
 .glue_7t       0x80131ca4        0x0 arch/arm/cpu/arm1176/nxp2120/libnxp2120.a(cmd.o)
 .glue_7t       0x80131ca4        0x0 arch/arm/cpu/arm1176/nxp2120/libnxp2120.a(cmd_udown.o)
 .glue_7t       0x80131ca4        0x0 arch/arm/cpu/arm1176/nxp2120/libnxp2120.a(BootHeader.o)
 .glue_7t       0x80131ca4        0x0 arch/arm/cpu/arm1176/nxp2120/libnxp2120.a(nx_alive.o)
 .glue_7t       0x80131ca4        0x0 arch/arm/cpu/arm1176/nxp2120/libnxp2120.a(nx_clkpwr.o)
 .glue_7t       0x80131ca4        0x0 arch/arm/cpu/arm1176/nxp2120/libnxp2120.a(nx_dpc.o)
 .glue_7t       0x80131ca4        0x0 arch/arm/cpu/arm1176/nxp2120/libnxp2120.a(nx_gpio.o)
 .glue_7t       0x80131ca4        0x0 arch/arm/cpu/arm1176/nxp2120/libnxp2120.a(nx_intc.o)
 .glue_7t       0x80131ca4        0x0 arch/arm/cpu/arm1176/nxp2120/libnxp2120.a(nx_mcud.o)
 .glue_7t       0x80131ca4        0x0 arch/arm/cpu/arm1176/nxp2120/libnxp2120.a(nx_mcus.o)
 .glue_7t       0x80131ca4        0x0 arch/arm/cpu/arm1176/nxp2120/libnxp2120.a(nx_mlc.o)
 .glue_7t       0x80131ca4        0x0 arch/arm/cpu/arm1176/nxp2120/libnxp2120.a(nx_pwm.o)
 .glue_7t       0x80131ca4        0x0 arch/arm/cpu/arm1176/nxp2120/libnxp2120.a(nx_sdhc.o)
 .glue_7t       0x80131ca4        0x0 arch/arm/cpu/arm1176/nxp2120/libnxp2120.a(nx_timer.o)
 .glue_7t       0x80131ca4        0x0 arch/arm/cpu/arm1176/nxp2120/libnxp2120.a(nx_uart.o)
 .glue_7t       0x80131ca4        0x0 arch/arm/cpu/arm1176/nxp2120/libnxp2120.a(reset.o)
 .glue_7t       0x80131ca4        0x0 arch/arm/lib/libarm.a(board.o)
 .glue_7t       0x80131ca4        0x0 arch/arm/lib/libarm.a(interrupts.o)
 .glue_7t       0x80131ca4        0x0 net/libnet.a(eth.o)
 .glue_7t       0x80131ca4        0x0 net/libnet.a(net.o)
 .glue_7t       0x80131ca4        0x0 net/libnet.a(nfs.o)
 .glue_7t       0x80131ca4        0x0 net/libnet.a(rarp.o)
 .glue_7t       0x80131ca4        0x0 net/libnet.a(tftp.o)
 .glue_7t       0x80131ca4        0x0 net/libnet.a(bootp.o)
 .glue_7t       0x80131ca4        0x0 drivers/mmc/libmmc.a(mmc.o)
 .glue_7t       0x80131ca4        0x0 drivers/mtd/nand/libnand.a(nand.o)
 .glue_7t       0x80131ca4        0x0 drivers/mtd/nand/libnand.a(nand_base.o)
 .glue_7t       0x80131ca4        0x0 drivers/mtd/nand/libnand.a(nand_bbt.o)
 .glue_7t       0x80131ca4        0x0 drivers/mtd/nand/libnand.a(nand_ecc.o)
 .glue_7t       0x80131ca4        0x0 drivers/mtd/nand/libnand.a(nand_ids.o)
 .glue_7t       0x80131ca4        0x0 common/libcommon.a(cmd_bdinfo.o)
 .glue_7t       0x80131ca4        0x0 common/libcommon.a(cmd_boot.o)
 .glue_7t       0x80131ca4        0x0 common/libcommon.a(cmd_bootm.o)
 .glue_7t       0x80131ca4        0x0 common/libcommon.a(cmd_console.o)
 .glue_7t       0x80131ca4        0x0 common/libcommon.a(cmd_echo.o)
 .glue_7t       0x80131ca4        0x0 common/libcommon.a(cmd_exit.o)
 .glue_7t       0x80131ca4        0x0 common/libcommon.a(cmd_falinux.o)
 .glue_7t       0x80131ca4        0x0 common/libcommon.a(cmd_fat.o)
 .glue_7t       0x80131ca4        0x0 common/libcommon.a(cmd_flash.o)
 .glue_7t       0x80131ca4        0x0 common/libcommon.a(cmd_help.o)
 .glue_7t       0x80131ca4        0x0 common/libcommon.a(cmd_itest.o)
 .glue_7t       0x80131ca4        0x0 common/libcommon.a(cmd_load.o)
 .glue_7t       0x80131ca4        0x0 common/libcommon.a(cmd_mem.o)
 .glue_7t       0x80131ca4        0x0 common/libcommon.a(cmd_misc.o)
 .glue_7t       0x80131ca4        0x0 common/libcommon.a(cmd_mmc.o)
 .glue_7t       0x80131ca4        0x0 common/libcommon.a(cmd_nand.o)
 .glue_7t       0x80131ca4        0x0 common/libcommon.a(cmd_net.o)
 .glue_7t       0x80131ca4        0x0 common/libcommon.a(cmd_nvedit.o)
 .glue_7t       0x80131ca4        0x0 common/libcommon.a(cmd_source.o)
 .glue_7t       0x80131ca4        0x0 common/libcommon.a(cmd_test.o)
 .glue_7t       0x80131ca4        0x0 common/libcommon.a(cmd_usb.o)
 .glue_7t       0x80131ca4        0x0 common/libcommon.a(cmd_version.o)
 .glue_7t       0x80131ca4        0x0 common/libcommon.a(cmd_ximg.o)
 .glue_7t       0x80131ca4        0x0 common/libcommon.a(cmd_zmac.o)
 .glue_7t       0x80131ca4        0x0 common/libcommon.a(command.o)
 .glue_7t       0x80131ca4        0x0 common/libcommon.a(console.o)
 .glue_7t       0x80131ca4        0x0 common/libcommon.a(dlmalloc.o)
 .glue_7t       0x80131ca4        0x0 common/libcommon.a(env_common.o)
 .glue_7t       0x80131ca4        0x0 common/libcommon.a(env_nand.o)
 .glue_7t       0x80131ca4        0x0 common/libcommon.a(exports.o)
 .glue_7t       0x80131ca4        0x0 common/libcommon.a(hush.o)
 .glue_7t       0x80131ca4        0x0 common/libcommon.a(image.o)
 .glue_7t       0x80131ca4        0x0 common/libcommon.a(main.o)
 .glue_7t       0x80131ca4        0x0 common/libcommon.a(s_record.o)
 .glue_7t       0x80131ca4        0x0 common/libcommon.a(stdio.o)
 .glue_7t       0x80131ca4        0x0 common/libcommon.a(usb.o)
 .glue_7t       0x80131ca4        0x0 common/libcommon.a(usb_storage.o)
 .glue_7t       0x80131ca4        0x0 common/libcommon.a(xyzModem.o)
 .glue_7t       0x80131ca4        0x0 board/nxp2120/dtk/libdtk.a(board.o)
 .glue_7t       0x80131ca4        0x0 board/nxp2120/dtk/libdtk.a(logo.o)
 .glue_7t       0x80131ca4        0x0 lib/libgeneric.a(crc16.o)
 .glue_7t       0x80131ca4        0x0 lib/libgeneric.a(crc32.o)
 .glue_7t       0x80131ca4        0x0 lib/libgeneric.a(ctype.o)
 .glue_7t       0x80131ca4        0x0 lib/libgeneric.a(display_options.o)
 .glue_7t       0x80131ca4        0x0 lib/libgeneric.a(div64.o)
 .glue_7t       0x80131ca4        0x0 lib/libgeneric.a(gunzip.o)
 .glue_7t       0x80131ca4        0x0 lib/libgeneric.a(net_utils.o)
 .glue_7t       0x80131ca4        0x0 lib/libgeneric.a(string.o)
 .glue_7t       0x80131ca4        0x0 lib/libgeneric.a(time.o)
 .glue_7t       0x80131ca4        0x0 lib/libgeneric.a(vsprintf.o)
 .glue_7t       0x80131ca4        0x0 lib/libgeneric.a(zlib.o)
 .glue_7t       0x80131ca4        0x0 arch/arm/cpu/arm1176/nxp2120/libnxp2120.a(timer.o)
 .glue_7t       0x80131ca4        0x0 arch/arm/cpu/arm1176/nxp2120/libnxp2120.a(nand.o)
 .glue_7t       0x80131ca4        0x0 arch/arm/cpu/arm1176/nxp2120/libnxp2120.a(nand_ecc.o)
 .glue_7t       0x80131ca4        0x0 arch/arm/lib/libarm.a(bootm.o)
 .glue_7t       0x80131ca4        0x0 arch/arm/lib/libarm.a(cache.o)
 .glue_7t       0x80131ca4        0x0 arch/arm/lib/libarm.a(reset.o)
 .glue_7t       0x80131ca4        0x0 fs/fat/libfat.a(fat.o)
 .glue_7t       0x80131ca4        0x0 disk/libdisk.a(part.o)
 .glue_7t       0x80131ca4        0x0 disk/libdisk.a(part_dos.o)
 .glue_7t       0x80131ca4        0x0 drivers/mtd/nand/libnand.a(nand_util.o)
 .glue_7t       0x80131ca4        0x0 drivers/net/libnet.a(dm9000x.o)
 .glue_7t       0x80131ca4        0x0 drivers/usb/host/libusb_host.a(ehci-hcd.o)
 .glue_7t       0x80131ca4        0x0 drivers/usb/host/libusb_host.a(ehci-nxp2120.o)
 .glue_7t       0x80131ca4        0x0 arch/arm/cpu/arm1176/libarm1176.a(cpu.o)
 .glue_7t       0x80131ca4        0x0 arch/arm/lib/libarm.a(cache-cp15.o)
 .glue_7t       0x80131ca4        0x0 /staff/I15-0248_webcon_u-boot/bootloader/arch/arm/lib/eabi_compat.o
 .glue_7t       0x80131ca4        0x0 /usr/lib/gcc/arm-generic-linux-gnueabi/4.3.2/libgcc.a(_udivsi3.o)
 .glue_7t       0x80131ca4        0x0 /usr/lib/gcc/arm-generic-linux-gnueabi/4.3.2/libgcc.a(_divsi3.o)
 .glue_7t       0x80131ca4        0x0 /usr/lib/gcc/arm-generic-linux-gnueabi/4.3.2/libgcc.a(_lshrdi3.o)
 .glue_7t       0x80131ca4        0x0 /usr/lib/gcc/arm-generic-linux-gnueabi/4.3.2/libgcc.a(_ashrdi3.o)
 .glue_7t       0x80131ca4        0x0 /usr/lib/gcc/arm-generic-linux-gnueabi/4.3.2/libgcc.a(_ashldi3.o)
 .glue_7t       0x80131ca4        0x0 /usr/lib/gcc/arm-generic-linux-gnueabi/4.3.2/libgcc.a(_dvmd_lnx.o)

.vfp11_veneer   0x80131ca4        0x0
 .vfp11_veneer  0x80131ca4        0x0 arch/arm/cpu/arm1176/start.o
 .vfp11_veneer  0x80131ca4        0x0 arch/arm/cpu/arm1176/nxp2120/libnxp2120.a(cpu.o)
 .vfp11_veneer  0x80131ca4        0x0 arch/arm/cpu/arm1176/nxp2120/libnxp2120.a(nxp2120.o)
 .vfp11_veneer  0x80131ca4        0x0 arch/arm/cpu/arm1176/nxp2120/libnxp2120.a(wakeup.o)
 .vfp11_veneer  0x80131ca4        0x0 arch/arm/cpu/arm1176/nxp2120/libnxp2120.a(pm.o)
 .vfp11_veneer  0x80131ca4        0x0 arch/arm/cpu/arm1176/nxp2120/libnxp2120.a(serial.o)
 .vfp11_veneer  0x80131ca4        0x0 arch/arm/cpu/arm1176/nxp2120/libnxp2120.a(sdhc.o)
 .vfp11_veneer  0x80131ca4        0x0 arch/arm/cpu/arm1176/nxp2120/libnxp2120.a(cmd.o)
 .vfp11_veneer  0x80131ca4        0x0 arch/arm/cpu/arm1176/nxp2120/libnxp2120.a(cmd_udown.o)
 .vfp11_veneer  0x80131ca4        0x0 arch/arm/cpu/arm1176/nxp2120/libnxp2120.a(BootHeader.o)
 .vfp11_veneer  0x80131ca4        0x0 arch/arm/cpu/arm1176/nxp2120/libnxp2120.a(nx_alive.o)
 .vfp11_veneer  0x80131ca4        0x0 arch/arm/cpu/arm1176/nxp2120/libnxp2120.a(nx_clkpwr.o)
 .vfp11_veneer  0x80131ca4        0x0 arch/arm/cpu/arm1176/nxp2120/libnxp2120.a(nx_dpc.o)
 .vfp11_veneer  0x80131ca4        0x0 arch/arm/cpu/arm1176/nxp2120/libnxp2120.a(nx_gpio.o)
 .vfp11_veneer  0x80131ca4        0x0 arch/arm/cpu/arm1176/nxp2120/libnxp2120.a(nx_intc.o)
 .vfp11_veneer  0x80131ca4        0x0 arch/arm/cpu/arm1176/nxp2120/libnxp2120.a(nx_mcud.o)
 .vfp11_veneer  0x80131ca4        0x0 arch/arm/cpu/arm1176/nxp2120/libnxp2120.a(nx_mcus.o)
 .vfp11_veneer  0x80131ca4        0x0 arch/arm/cpu/arm1176/nxp2120/libnxp2120.a(nx_mlc.o)
 .vfp11_veneer  0x80131ca4        0x0 arch/arm/cpu/arm1176/nxp2120/libnxp2120.a(nx_pwm.o)
 .vfp11_veneer  0x80131ca4        0x0 arch/arm/cpu/arm1176/nxp2120/libnxp2120.a(nx_sdhc.o)
 .vfp11_veneer  0x80131ca4        0x0 arch/arm/cpu/arm1176/nxp2120/libnxp2120.a(nx_timer.o)
 .vfp11_veneer  0x80131ca4        0x0 arch/arm/cpu/arm1176/nxp2120/libnxp2120.a(nx_uart.o)
 .vfp11_veneer  0x80131ca4        0x0 arch/arm/cpu/arm1176/nxp2120/libnxp2120.a(reset.o)
 .vfp11_veneer  0x80131ca4        0x0 arch/arm/lib/libarm.a(board.o)
 .vfp11_veneer  0x80131ca4        0x0 arch/arm/lib/libarm.a(interrupts.o)
 .vfp11_veneer  0x80131ca4        0x0 net/libnet.a(eth.o)
 .vfp11_veneer  0x80131ca4        0x0 net/libnet.a(net.o)
 .vfp11_veneer  0x80131ca4        0x0 net/libnet.a(nfs.o)
 .vfp11_veneer  0x80131ca4        0x0 net/libnet.a(rarp.o)
 .vfp11_veneer  0x80131ca4        0x0 net/libnet.a(tftp.o)
 .vfp11_veneer  0x80131ca4        0x0 net/libnet.a(bootp.o)
 .vfp11_veneer  0x80131ca4        0x0 drivers/mmc/libmmc.a(mmc.o)
 .vfp11_veneer  0x80131ca4        0x0 drivers/mtd/nand/libnand.a(nand.o)
 .vfp11_veneer  0x80131ca4        0x0 drivers/mtd/nand/libnand.a(nand_base.o)
 .vfp11_veneer  0x80131ca4        0x0 drivers/mtd/nand/libnand.a(nand_bbt.o)
 .vfp11_veneer  0x80131ca4        0x0 drivers/mtd/nand/libnand.a(nand_ecc.o)
 .vfp11_veneer  0x80131ca4        0x0 drivers/mtd/nand/libnand.a(nand_ids.o)
 .vfp11_veneer  0x80131ca4        0x0 common/libcommon.a(cmd_bdinfo.o)
 .vfp11_veneer  0x80131ca4        0x0 common/libcommon.a(cmd_boot.o)
 .vfp11_veneer  0x80131ca4        0x0 common/libcommon.a(cmd_bootm.o)
 .vfp11_veneer  0x80131ca4        0x0 common/libcommon.a(cmd_console.o)
 .vfp11_veneer  0x80131ca4        0x0 common/libcommon.a(cmd_echo.o)
 .vfp11_veneer  0x80131ca4        0x0 common/libcommon.a(cmd_exit.o)
 .vfp11_veneer  0x80131ca4        0x0 common/libcommon.a(cmd_falinux.o)
 .vfp11_veneer  0x80131ca4        0x0 common/libcommon.a(cmd_fat.o)
 .vfp11_veneer  0x80131ca4        0x0 common/libcommon.a(cmd_flash.o)
 .vfp11_veneer  0x80131ca4        0x0 common/libcommon.a(cmd_help.o)
 .vfp11_veneer  0x80131ca4        0x0 common/libcommon.a(cmd_itest.o)
 .vfp11_veneer  0x80131ca4        0x0 common/libcommon.a(cmd_load.o)
 .vfp11_veneer  0x80131ca4        0x0 common/libcommon.a(cmd_mem.o)
 .vfp11_veneer  0x80131ca4        0x0 common/libcommon.a(cmd_misc.o)
 .vfp11_veneer  0x80131ca4        0x0 common/libcommon.a(cmd_mmc.o)
 .vfp11_veneer  0x80131ca4        0x0 common/libcommon.a(cmd_nand.o)
 .vfp11_veneer  0x80131ca4        0x0 common/libcommon.a(cmd_net.o)
 .vfp11_veneer  0x80131ca4        0x0 common/libcommon.a(cmd_nvedit.o)
 .vfp11_veneer  0x80131ca4        0x0 common/libcommon.a(cmd_source.o)
 .vfp11_veneer  0x80131ca4        0x0 common/libcommon.a(cmd_test.o)
 .vfp11_veneer  0x80131ca4        0x0 common/libcommon.a(cmd_usb.o)
 .vfp11_veneer  0x80131ca4        0x0 common/libcommon.a(cmd_version.o)
 .vfp11_veneer  0x80131ca4        0x0 common/libcommon.a(cmd_ximg.o)
 .vfp11_veneer  0x80131ca4        0x0 common/libcommon.a(cmd_zmac.o)
 .vfp11_veneer  0x80131ca4        0x0 common/libcommon.a(command.o)
 .vfp11_veneer  0x80131ca4        0x0 common/libcommon.a(console.o)
 .vfp11_veneer  0x80131ca4        0x0 common/libcommon.a(dlmalloc.o)
 .vfp11_veneer  0x80131ca4        0x0 common/libcommon.a(env_common.o)
 .vfp11_veneer  0x80131ca4        0x0 common/libcommon.a(env_nand.o)
 .vfp11_veneer  0x80131ca4        0x0 common/libcommon.a(exports.o)
 .vfp11_veneer  0x80131ca4        0x0 common/libcommon.a(hush.o)
 .vfp11_veneer  0x80131ca4        0x0 common/libcommon.a(image.o)
 .vfp11_veneer  0x80131ca4        0x0 common/libcommon.a(main.o)
 .vfp11_veneer  0x80131ca4        0x0 common/libcommon.a(s_record.o)
 .vfp11_veneer  0x80131ca4        0x0 common/libcommon.a(stdio.o)
 .vfp11_veneer  0x80131ca4        0x0 common/libcommon.a(usb.o)
 .vfp11_veneer  0x80131ca4        0x0 common/libcommon.a(usb_storage.o)
 .vfp11_veneer  0x80131ca4        0x0 common/libcommon.a(xyzModem.o)
 .vfp11_veneer  0x80131ca4        0x0 board/nxp2120/dtk/libdtk.a(board.o)
 .vfp11_veneer  0x80131ca4        0x0 board/nxp2120/dtk/libdtk.a(logo.o)
 .vfp11_veneer  0x80131ca4        0x0 lib/libgeneric.a(crc16.o)
 .vfp11_veneer  0x80131ca4        0x0 lib/libgeneric.a(crc32.o)
 .vfp11_veneer  0x80131ca4        0x0 lib/libgeneric.a(ctype.o)
 .vfp11_veneer  0x80131ca4        0x0 lib/libgeneric.a(display_options.o)
 .vfp11_veneer  0x80131ca4        0x0 lib/libgeneric.a(div64.o)
 .vfp11_veneer  0x80131ca4        0x0 lib/libgeneric.a(gunzip.o)
 .vfp11_veneer  0x80131ca4        0x0 lib/libgeneric.a(net_utils.o)
 .vfp11_veneer  0x80131ca4        0x0 lib/libgeneric.a(string.o)
 .vfp11_veneer  0x80131ca4        0x0 lib/libgeneric.a(time.o)
 .vfp11_veneer  0x80131ca4        0x0 lib/libgeneric.a(vsprintf.o)
 .vfp11_veneer  0x80131ca4        0x0 lib/libgeneric.a(zlib.o)
 .vfp11_veneer  0x80131ca4        0x0 arch/arm/cpu/arm1176/nxp2120/libnxp2120.a(timer.o)
 .vfp11_veneer  0x80131ca4        0x0 arch/arm/cpu/arm1176/nxp2120/libnxp2120.a(nand.o)
 .vfp11_veneer  0x80131ca4        0x0 arch/arm/cpu/arm1176/nxp2120/libnxp2120.a(nand_ecc.o)
 .vfp11_veneer  0x80131ca4        0x0 arch/arm/lib/libarm.a(bootm.o)
 .vfp11_veneer  0x80131ca4        0x0 arch/arm/lib/libarm.a(cache.o)
 .vfp11_veneer  0x80131ca4        0x0 arch/arm/lib/libarm.a(reset.o)
 .vfp11_veneer  0x80131ca4        0x0 fs/fat/libfat.a(fat.o)
 .vfp11_veneer  0x80131ca4        0x0 disk/libdisk.a(part.o)
 .vfp11_veneer  0x80131ca4        0x0 disk/libdisk.a(part_dos.o)
 .vfp11_veneer  0x80131ca4        0x0 drivers/mtd/nand/libnand.a(nand_util.o)
 .vfp11_veneer  0x80131ca4        0x0 drivers/net/libnet.a(dm9000x.o)
 .vfp11_veneer  0x80131ca4        0x0 drivers/usb/host/libusb_host.a(ehci-hcd.o)
 .vfp11_veneer  0x80131ca4        0x0 drivers/usb/host/libusb_host.a(ehci-nxp2120.o)
 .vfp11_veneer  0x80131ca4        0x0 arch/arm/cpu/arm1176/libarm1176.a(cpu.o)
 .vfp11_veneer  0x80131ca4        0x0 arch/arm/lib/libarm.a(cache-cp15.o)
 .vfp11_veneer  0x80131ca4        0x0 /staff/I15-0248_webcon_u-boot/bootloader/arch/arm/lib/eabi_compat.o
 .vfp11_veneer  0x80131ca4        0x0 /usr/lib/gcc/arm-generic-linux-gnueabi/4.3.2/libgcc.a(_udivsi3.o)
 .vfp11_veneer  0x80131ca4        0x0 /usr/lib/gcc/arm-generic-linux-gnueabi/4.3.2/libgcc.a(_divsi3.o)
 .vfp11_veneer  0x80131ca4        0x0 /usr/lib/gcc/arm-generic-linux-gnueabi/4.3.2/libgcc.a(_lshrdi3.o)
 .vfp11_veneer  0x80131ca4        0x0 /usr/lib/gcc/arm-generic-linux-gnueabi/4.3.2/libgcc.a(_ashrdi3.o)
 .vfp11_veneer  0x80131ca4        0x0 /usr/lib/gcc/arm-generic-linux-gnueabi/4.3.2/libgcc.a(_ashldi3.o)
 .vfp11_veneer  0x80131ca4        0x0 /usr/lib/gcc/arm-generic-linux-gnueabi/4.3.2/libgcc.a(_dvmd_lnx.o)
                0x80131ca4                . = ALIGN (0x4)

.rodata         0x80131ca8     0x8fe1
 *(SORT(.rodata*))
 .rodata        0x80131ca8       0x70 drivers/mtd/nand/libnand.a(nand_base.o)
 .rodata        0x80131d18        0x4 arch/arm/cpu/arm1176/nxp2120/libnxp2120.a(nx_dpc.o)
 .rodata        0x80131d1c       0x14 arch/arm/cpu/arm1176/nxp2120/libnxp2120.a(nx_timer.o)
 .rodata        0x80131d30       0x20 arch/arm/cpu/arm1176/nxp2120/libnxp2120.a(nx_uart.o)
 .rodata        0x80131d50       0x80 arch/arm/lib/libarm.a(interrupts.o)
 .rodata        0x80131dd0       0x4c common/libcommon.a(cmd_bootm.o)
 .rodata        0x80131e1c       0x14 common/libcommon.a(cmd_nvedit.o)
 .rodata        0x80131e30      0x1c0 board/nxp2120/dtk/libdtk.a(board.o)
 .rodata        0x80131ff0      0x400 lib/libgeneric.a(crc32.o)
 .rodata        0x801323f0      0x9cc lib/libgeneric.a(zlib.o)
                0x801323f0                z_errmsg
 .rodata        0x80132dbc       0x18 disk/libdisk.a(part.o)
 .rodata        0x80132dd4       0x64 arch/arm/cpu/arm1176/nxp2120/libnxp2120.a(cmd_udown.o)
 .rodata        0x80132e38      0x200 lib/libgeneric.a(crc16.o)
 .rodata        0x80133038        0xc arch/arm/cpu/arm1176/nxp2120/libnxp2120.a(wakeup.o)
 .rodata        0x80133044       0x22 arch/arm/cpu/arm1176/nxp2120/libnxp2120.a(sdhc.o)
 .rodata        0x80133066       0x2e arch/arm/lib/libarm.a(board.o)
                0x80133066                version_string
 .rodata        0x80133094        0x7 net/libnet.a(eth.o)
 .rodata        0x8013309b        0x7 net/libnet.a(net.o)
 .rodata        0x801330a2        0x5 drivers/mtd/nand/libnand.a(nand.o)
 .rodata        0x801330a7       0x1c drivers/mtd/nand/libnand.a(nand_bbt.o)
 .rodata        0x801330c3      0x100 drivers/mtd/nand/libnand.a(nand_ecc.o)
 .rodata        0x801331c3        0x6 lib/libgeneric.a(display_options.o)
 .rodata        0x801331c9       0x21 lib/libgeneric.a(vsprintf.o)
                0x801331c9                hex_asc
 .rodata        0x801331ea       0x10 arch/arm/cpu/arm1176/nxp2120/libnxp2120.a(nand.o)
 .rodata        0x801331fa       0x3a arch/arm/cpu/arm1176/nxp2120/libnxp2120.a(nand_ecc.o)
 .rodata        0x80133234       0x3f drivers/usb/host/libusb_host.a(ehci-hcd.o)
 .rodata.str1.1
                0x80133273       0x63 arch/arm/cpu/arm1176/nxp2120/libnxp2120.a(cpu.o)
 .rodata.str1.1
                0x801332d6      0x41e arch/arm/cpu/arm1176/nxp2120/libnxp2120.a(nxp2120.o)
                                0x43f (size before relaxing)
 .rodata.str1.1
                0x801336f4       0x5b arch/arm/cpu/arm1176/nxp2120/libnxp2120.a(wakeup.o)
 .rodata.str1.1
                0x8013374f      0x2b8 arch/arm/cpu/arm1176/nxp2120/libnxp2120.a(sdhc.o)
 .rodata.str1.1
                0x80133a07      0x1a6 arch/arm/cpu/arm1176/nxp2120/libnxp2120.a(cmd.o)
                                0x1c6 (size before relaxing)
 .rodata.str1.1
                0x80133bad       0x4e arch/arm/cpu/arm1176/nxp2120/libnxp2120.a(cmd_udown.o)
 .rodata.str1.1
                0x80133bfb       0x19 arch/arm/cpu/arm1176/nxp2120/libnxp2120.a(BootHeader.o)
 .rodata.str1.1
                0x80133c14       0x73 arch/arm/lib/libarm.a(board.o)
                                 0x75 (size before relaxing)
 .rodata.str1.1
                0x80133c87      0x264 arch/arm/lib/libarm.a(interrupts.o)
                                0x27b (size before relaxing)
 .rodata.str1.1
                0x80133eeb       0xc5 net/libnet.a(eth.o)
                                 0xdf (size before relaxing)
 .rodata.str1.1
                0x80133fb0      0x20c net/libnet.a(net.o)
                                0x217 (size before relaxing)
 .rodata.str1.1
                0x801341bc      0x193 net/libnet.a(nfs.o)
                                0x1a9 (size before relaxing)
 .rodata.str1.1
                0x8013434f       0x20 net/libnet.a(rarp.o)
                                 0x47 (size before relaxing)
 .rodata.str1.1
                0x8013436f      0x162 net/libnet.a(tftp.o)
                                0x249 (size before relaxing)
 .rodata.str1.1
                0x801344d1      0x100 net/libnet.a(bootp.o)
                                0x13d (size before relaxing)
 .rodata.str1.1
                0x801345d1       0xbf drivers/mmc/libmmc.a(mmc.o)
                                 0xcb (size before relaxing)
 .rodata.str1.1
                0x80134690        0x8 drivers/mtd/nand/libnand.a(nand.o)
 .rodata.str1.1
                0x80134698      0x331 drivers/mtd/nand/libnand.a(nand_base.o)
 .rodata.str1.1
                0x801349c9      0x342 drivers/mtd/nand/libnand.a(nand_bbt.o)
                                0x364 (size before relaxing)
 .rodata.str1.1
                0x80134d0b      0x4d9 drivers/mtd/nand/libnand.a(nand_ids.o)
                                0x4ef (size before relaxing)
 .rodata.str1.1
                0x801351e4       0xaa common/libcommon.a(cmd_bdinfo.o)
                                 0xb3 (size before relaxing)
 .rodata.str1.1
                0x8013528e       0xef common/libcommon.a(cmd_boot.o)
                                 0xf0 (size before relaxing)
 .rodata.str1.1
                0x8013537d      0x7be common/libcommon.a(cmd_bootm.o)
                                0x829 (size before relaxing)
 .rodata.str1.1
                0x80135b3b       0x5c common/libcommon.a(cmd_console.o)
                                 0x61 (size before relaxing)
 .rodata.str1.1
                0x80135b97       0x50 common/libcommon.a(cmd_echo.o)
                                 0x55 (size before relaxing)
 .rodata.str1.1
                0x80135be7       0x11 common/libcommon.a(cmd_exit.o)
                                 0x12 (size before relaxing)
 .rodata.str1.1
                0x80135bf8      0x2c0 common/libcommon.a(cmd_falinux.o)
                                0x2f2 (size before relaxing)
 .rodata.str1.1
                0x80135eb8      0x396 common/libcommon.a(cmd_fat.o)
                                0x3a5 (size before relaxing)
 .rodata.str1.1
                0x8013624e      0x4b6 common/libcommon.a(cmd_flash.o)
                                0x4bd (size before relaxing)
 .rodata.str1.1
                0x80136704       0x9a common/libcommon.a(cmd_help.o)
                                 0x9b (size before relaxing)
 .rodata.str1.1
                0x8013679e       0xb3 common/libcommon.a(cmd_itest.o)
                                 0xb5 (size before relaxing)
 .rodata.str1.1
                0x80136851      0x339 common/libcommon.a(cmd_load.o)
                                0x353 (size before relaxing)
 .rodata.str1.1
                0x80136b8a      0x47d common/libcommon.a(cmd_mem.o)
                                0x491 (size before relaxing)
 .rodata.str1.1
                0x80137007       0x5f common/libcommon.a(cmd_misc.o)
 .rodata.str1.1
                0x80137066      0x2af common/libcommon.a(cmd_mmc.o)
                                0x2b7 (size before relaxing)
 .rodata.str1.1
                0x80137315      0x842 common/libcommon.a(cmd_nand.o)
                                0x8b1 (size before relaxing)
 .rodata.str1.1
                0x80137b57      0x1ea common/libcommon.a(cmd_net.o)
                                0x223 (size before relaxing)
 .rodata.str1.1
                0x80137d41      0x33b common/libcommon.a(cmd_nvedit.o)
                                0x39b (size before relaxing)
 .rodata.str1.1
                0x8013807c      0x101 common/libcommon.a(cmd_source.o)
                                0x108 (size before relaxing)
 .rodata.str1.1
                0x8013817d       0x6e common/libcommon.a(cmd_test.o)
                                 0x96 (size before relaxing)
 .rodata.str1.1
                0x801381eb      0x82f common/libcommon.a(cmd_usb.o)
                                0x969 (size before relaxing)
 .rodata.str1.1
                0x80138a1a       0x1b common/libcommon.a(cmd_version.o)
                                 0x24 (size before relaxing)
 .rodata.str1.1
                0x80138a35      0x17e common/libcommon.a(cmd_ximg.o)
                                0x22f (size before relaxing)
 .rodata.str1.1
                0x80138bb3      0x166 common/libcommon.a(cmd_zmac.o)
 .rodata.str1.1
                0x80138d19       0x95 common/libcommon.a(command.o)
 .rodata.str1.1
                0x80138dae       0x70 common/libcommon.a(console.o)
                                 0x74 (size before relaxing)
 .rodata.str1.1
                0x80138e1e       0x33 common/libcommon.a(env_common.o)
 .rodata.str1.1
                0x80138e51       0x6e common/libcommon.a(env_nand.o)
                                 0x74 (size before relaxing)
 .rodata.str1.1
                0x80138ebf      0x241 common/libcommon.a(hush.o)
                                0x26c (size before relaxing)
 .rodata.str1.1
                0x80139100      0x42c common/libcommon.a(image.o)
                                0x4ce (size before relaxing)
 .rodata.str1.1
                0x8013952c       0x90 common/libcommon.a(main.o)
                                 0xf7 (size before relaxing)
 .rodata.str1.1
                0x801395bc        0x7 common/libcommon.a(stdio.o)
                                 0x1b (size before relaxing)
 .rodata.str1.1
                0x801395c3      0x28b common/libcommon.a(usb.o)
 .rodata.str1.1
                0x8013984e      0x1ed common/libcommon.a(usb_storage.o)
                                0x1ff (size before relaxing)
 .rodata.str1.1
                0x80139a3b       0xe3 common/libcommon.a(xyzModem.o)
                                 0xe5 (size before relaxing)
 .rodata.str1.1
                0x80139b1e      0x251 board/nxp2120/dtk/libdtk.a(board.o)
                                0x2a1 (size before relaxing)
 .rodata.str1.1
                0x80139d6f       0x69 board/nxp2120/dtk/libdtk.a(logo.o)
 .rodata.str1.1
                0x80139dd8       0x1a lib/libgeneric.a(display_options.o)
                                 0x43 (size before relaxing)
 .rodata.str1.1
                0x80139df2       0x85 lib/libgeneric.a(gunzip.o)
 .rodata.str1.1
                0x80139e77        0xe lib/libgeneric.a(vsprintf.o)
 .rodata.str1.1
                0x80139e85      0x21c lib/libgeneric.a(zlib.o)
                                0x21d (size before relaxing)
 .rodata.str1.1
                0x8013a0a1       0x4f arch/arm/cpu/arm1176/nxp2120/libnxp2120.a(nand.o)
 .rodata.str1.1
                0x8013a0f0      0x1dc arch/arm/cpu/arm1176/nxp2120/libnxp2120.a(nand_ecc.o)
                                0x1f7 (size before relaxing)
 .rodata.str1.1
                0x8013a2cc       0x42 arch/arm/lib/libarm.a(bootm.o)
                                 0x4b (size before relaxing)
 .rodata.str1.1
                0x8013a30e        0xf arch/arm/lib/libarm.a(reset.o)
 .rodata.str1.1
                0x8013a31d      0x13d fs/fat/libfat.a(fat.o)
                                0x153 (size before relaxing)
 .rodata.str1.1
                0x8013a45a      0x1af disk/libdisk.a(part.o)
                                0x1e8 (size before relaxing)
 .rodata.str1.1
                0x8013a609       0xe5 disk/libdisk.a(part_dos.o)
                                 0xf7 (size before relaxing)
 .rodata.str1.1
                0x8013a6ee      0x25d drivers/mtd/nand/libnand.a(nand_util.o)
                                0x25f (size before relaxing)
 .rodata.str1.1
                0x8013a94b      0x1f8 drivers/net/libnet.a(dm9000x.o)
                                0x1fe (size before relaxing)
 .rodata.str1.1
                0x8013ab43       0xf7 drivers/usb/host/libusb_host.a(ehci-hcd.o)
 .rodata.str1.1
                0x8013ac3a       0x34 drivers/usb/host/libusb_host.a(ehci-nxp2120.o)
 .rodata.str1.1
                0x8013ac6e       0x1b /staff/I15-0248_webcon_u-boot/bootloader/arch/arm/lib/eabi_compat.o
                0x8013ac8c                . = ALIGN (0x4)

.data           0x8013ac8c     0x5e6e
 *(.data)
 .data          0x8013ac8c        0x0 arch/arm/cpu/arm1176/start.o
 .data          0x8013ac8c        0x0 arch/arm/cpu/arm1176/nxp2120/libnxp2120.a(cpu.o)
 .data          0x8013ac8c        0x0 arch/arm/cpu/arm1176/nxp2120/libnxp2120.a(nxp2120.o)
 .data          0x8013ac8c        0x0 arch/arm/cpu/arm1176/nxp2120/libnxp2120.a(wakeup.o)
 .data          0x8013ac8c        0x0 arch/arm/cpu/arm1176/nxp2120/libnxp2120.a(pm.o)
 .data          0x8013ac8c        0x0 arch/arm/cpu/arm1176/nxp2120/libnxp2120.a(serial.o)
 .data          0x8013ac8c        0x0 arch/arm/cpu/arm1176/nxp2120/libnxp2120.a(sdhc.o)
 .data          0x8013ac8c        0x0 arch/arm/cpu/arm1176/nxp2120/libnxp2120.a(cmd.o)
 .data          0x8013ac8c        0x0 arch/arm/cpu/arm1176/nxp2120/libnxp2120.a(cmd_udown.o)
 .data          0x8013ac8c        0x0 arch/arm/cpu/arm1176/nxp2120/libnxp2120.a(BootHeader.o)
 .data          0x8013ac8c        0x0 arch/arm/cpu/arm1176/nxp2120/libnxp2120.a(nx_alive.o)
 .data          0x8013ac8c        0x0 arch/arm/cpu/arm1176/nxp2120/libnxp2120.a(nx_clkpwr.o)
 .data          0x8013ac8c        0x0 arch/arm/cpu/arm1176/nxp2120/libnxp2120.a(nx_dpc.o)
 .data          0x8013ac8c       0x24 arch/arm/cpu/arm1176/nxp2120/libnxp2120.a(nx_gpio.o)
                0x8013ac8c                __g_NX_GPIO_VALID_BIT
                0x8013ac98                __g_NX_GPIO_VALID_NUM_OF_INT
                0x8013aca4                __g_NX_GPIO_VALID_INT_MASK
 .data          0x8013acb0        0x0 arch/arm/cpu/arm1176/nxp2120/libnxp2120.a(nx_intc.o)
 .data          0x8013acb0        0x0 arch/arm/cpu/arm1176/nxp2120/libnxp2120.a(nx_mcud.o)
 .data          0x8013acb0        0x0 arch/arm/cpu/arm1176/nxp2120/libnxp2120.a(nx_mcus.o)
 .data          0x8013acb0        0x0 arch/arm/cpu/arm1176/nxp2120/libnxp2120.a(nx_mlc.o)
 .data          0x8013acb0        0x0 arch/arm/cpu/arm1176/nxp2120/libnxp2120.a(nx_pwm.o)
 .data          0x8013acb0        0x0 arch/arm/cpu/arm1176/nxp2120/libnxp2120.a(nx_sdhc.o)
 .data          0x8013acb0        0x0 arch/arm/cpu/arm1176/nxp2120/libnxp2120.a(nx_timer.o)
 .data          0x8013acb0        0x0 arch/arm/cpu/arm1176/nxp2120/libnxp2120.a(nx_uart.o)
 .data          0x8013acb0        0x0 arch/arm/cpu/arm1176/nxp2120/libnxp2120.a(reset.o)
 .data          0x8013acb0       0x30 arch/arm/lib/libarm.a(board.o)
                0x8013acb0                init_sequence
 .data          0x8013ace0        0x0 arch/arm/lib/libarm.a(interrupts.o)
 .data          0x8013ace0        0x0 net/libnet.a(eth.o)
 .data          0x8013ace0        0xa net/libnet.a(net.o)
                0x8013ace0                NetBcastAddr
                0x8013ace8                NetOurNativeVLAN
                0x8013ace6                NetOurVLAN
 *fill*         0x8013acea        0x2 00
 .data          0x8013acec        0x4 net/libnet.a(nfs.o)
 .data          0x8013acf0        0x0 net/libnet.a(rarp.o)
 .data          0x8013acf0       0x18 net/libnet.a(tftp.o)
                0x8013acf0                TftpRRQTimeoutMSecs
                0x8013acf4                TftpRRQTimeoutCountMax
 .data          0x8013ad08        0x0 net/libnet.a(bootp.o)
 .data          0x8013ad08       0x54 drivers/mmc/libmmc.a(mmc.o)
                0x8013ad08                fbase
                0x8013ad18                multipliers
 .data          0x8013ad5c        0x4 drivers/mtd/nand/libnand.a(nand.o)
                0x8013ad5c                nand_curr_device
 .data          0x8013ad60     0x4120 drivers/mtd/nand/libnand.a(nand_base.o)
 .data          0x8013ee80       0xc4 drivers/mtd/nand/libnand.a(nand_bbt.o)
 .data          0x8013ef44        0x0 drivers/mtd/nand/libnand.a(nand_ecc.o)
 .data          0x8013ef44      0x710 drivers/mtd/nand/libnand.a(nand_ids.o)
                0x8013f604                nand_manuf_ids
                0x8013ef44                nand_flash_ids
 .data          0x8013f654        0x0 common/libcommon.a(cmd_bdinfo.o)
 .data          0x8013f654        0x0 common/libcommon.a(cmd_boot.o)
 .data          0x8013f654       0x94 common/libcommon.a(cmd_bootm.o)
                0x8013f654                load_addr
 .data          0x8013f6e8        0x0 common/libcommon.a(cmd_console.o)
 .data          0x8013f6e8        0x0 common/libcommon.a(cmd_echo.o)
 .data          0x8013f6e8        0x0 common/libcommon.a(cmd_exit.o)
 .data          0x8013f6e8      0xa90 common/libcommon.a(cmd_falinux.o)
 .data          0x80140178        0x0 common/libcommon.a(cmd_fat.o)
 .data          0x80140178        0x0 common/libcommon.a(cmd_flash.o)
 .data          0x80140178        0x0 common/libcommon.a(cmd_help.o)
 .data          0x80140178       0x68 common/libcommon.a(cmd_itest.o)
                0x80140178                op_table
 .data          0x801401e0        0x4 common/libcommon.a(cmd_load.o)
 .data          0x801401e4        0x4 common/libcommon.a(cmd_mem.o)
                0x801401e4                dp_last_length
 .data          0x801401e8        0x0 common/libcommon.a(cmd_misc.o)
 .data          0x801401e8        0x0 common/libcommon.a(cmd_mmc.o)
 .data          0x801401e8        0x0 common/libcommon.a(cmd_nand.o)
 .data          0x801401e8        0x0 common/libcommon.a(cmd_net.o)
 .data          0x801401e8        0x4 common/libcommon.a(cmd_nvedit.o)
 .data          0x801401ec        0x0 common/libcommon.a(cmd_source.o)
 .data          0x801401ec        0x0 common/libcommon.a(cmd_test.o)
 .data          0x801401ec        0x4 common/libcommon.a(cmd_usb.o)
                0x801401ec                usb_stor_curr_dev
 .data          0x801401f0        0x0 common/libcommon.a(cmd_version.o)
 .data          0x801401f0        0x0 common/libcommon.a(cmd_ximg.o)
 .data          0x801401f0        0x0 common/libcommon.a(cmd_zmac.o)
 .data          0x801401f0        0x0 common/libcommon.a(command.o)
 .data          0x801401f0        0x0 common/libcommon.a(console.o)
 .data          0x801401f0      0x414 common/libcommon.a(dlmalloc.o)
 .data          0x80140604       0xd7 common/libcommon.a(env_common.o)
                0x80140604                default_environment
 *fill*         0x801406db        0x1 00
 .data          0x801406dc        0x4 common/libcommon.a(env_nand.o)
                0x801406dc                env_name_spec
 .data          0x801406e0        0x0 common/libcommon.a(exports.o)
 .data          0x801406e0       0x84 common/libcommon.a(hush.o)
 .data          0x80140764      0x204 common/libcommon.a(image.o)
 .data          0x80140968       0x14 common/libcommon.a(main.o)
 .data          0x8014097c        0x0 common/libcommon.a(s_record.o)
 .data          0x8014097c        0xc common/libcommon.a(stdio.o)
                0x8014097c                stdio_names
 .data          0x80140988        0x0 common/libcommon.a(usb.o)
 .data          0x80140988       0x20 common/libcommon.a(usb_storage.o)
                0x80140988                us_direction
 .data          0x801409a8        0x0 common/libcommon.a(xyzModem.o)
 .data          0x801409a8        0x0 board/nxp2120/dtk/libdtk.a(board.o)
 .data          0x801409a8       0x18 board/nxp2120/dtk/libdtk.a(logo.o)
                0x801409a8                PUTPIXELTABLE
 .data          0x801409c0        0x0 lib/libgeneric.a(crc16.o)
 .data          0x801409c0        0x0 lib/libgeneric.a(crc32.o)
 .data          0x801409c0      0x100 lib/libgeneric.a(ctype.o)
                0x801409c0                _ctype
 .data          0x80140ac0        0x0 lib/libgeneric.a(display_options.o)
 .data          0x80140ac0        0x0 lib/libgeneric.a(div64.o)
 .data          0x80140ac0        0x0 lib/libgeneric.a(gunzip.o)
 .data          0x80140ac0        0x0 lib/libgeneric.a(net_utils.o)
 .data          0x80140ac0        0x0 lib/libgeneric.a(string.o)
 .data          0x80140ac0        0x0 lib/libgeneric.a(time.o)
 .data          0x80140ac0        0x0 lib/libgeneric.a(vsprintf.o)
 .data          0x80140ac0        0x0 lib/libgeneric.a(zlib.o)
 .data          0x80140ac0        0x0 arch/arm/cpu/arm1176/nxp2120/libnxp2120.a(timer.o)
 .data          0x80140ac0        0x0 arch/arm/cpu/arm1176/nxp2120/libnxp2120.a(nand.o)
 .data          0x80140ac0        0x0 arch/arm/cpu/arm1176/nxp2120/libnxp2120.a(nand_ecc.o)
 .data          0x80140ac0        0x0 arch/arm/lib/libarm.a(bootm.o)
 .data          0x80140ac0        0x0 arch/arm/lib/libarm.a(cache.o)
 .data          0x80140ac0        0x0 arch/arm/lib/libarm.a(reset.o)
 .data          0x80140ac0        0x4 fs/fat/libfat.a(fat.o)
 .data          0x80140ac4        0x0 disk/libdisk.a(part.o)
 .data          0x80140ac4        0x0 disk/libdisk.a(part_dos.o)
 .data          0x80140ac4        0x0 drivers/mtd/nand/libnand.a(nand_util.o)
 .data          0x80140ac4        0x0 drivers/net/libnet.a(dm9000x.o)
 .data          0x80140ac4       0x36 drivers/usb/host/libusb_host.a(ehci-hcd.o)
 .data          0x80140afa        0x0 drivers/usb/host/libusb_host.a(ehci-nxp2120.o)
 .data          0x80140afa        0x0 arch/arm/cpu/arm1176/libarm1176.a(cpu.o)
 .data          0x80140afa        0x0 arch/arm/lib/libarm.a(cache-cp15.o)
 .data          0x80140afa        0x0 /staff/I15-0248_webcon_u-boot/bootloader/arch/arm/lib/eabi_compat.o
 .data          0x80140afa        0x0 /usr/lib/gcc/arm-generic-linux-gnueabi/4.3.2/libgcc.a(_udivsi3.o)
 .data          0x80140afa        0x0 /usr/lib/gcc/arm-generic-linux-gnueabi/4.3.2/libgcc.a(_divsi3.o)
 .data          0x80140afa        0x0 /usr/lib/gcc/arm-generic-linux-gnueabi/4.3.2/libgcc.a(_lshrdi3.o)
 .data          0x80140afa        0x0 /usr/lib/gcc/arm-generic-linux-gnueabi/4.3.2/libgcc.a(_ashrdi3.o)
 .data          0x80140afa        0x0 /usr/lib/gcc/arm-generic-linux-gnueabi/4.3.2/libgcc.a(_ashldi3.o)
 .data          0x80140afa        0x0 /usr/lib/gcc/arm-generic-linux-gnueabi/4.3.2/libgcc.a(_dvmd_lnx.o)
                0x80140afc                . = ALIGN (0x4)

.got
 *(.got)
                0x80140afc                . = .
                0x80140afc                __u_boot_cmd_start = .

.u_boot_cmd     0x80140afc      0x678
 *(.u_boot_cmd)
 .u_boot_cmd    0x80140afc       0x30 arch/arm/cpu/arm1176/nxp2120/libnxp2120.a(cmd.o)
                0x80140b14                __u_boot_cmd_info
                0x80140afc                __u_boot_cmd_zimage
 .u_boot_cmd    0x80140b2c       0x18 arch/arm/cpu/arm1176/nxp2120/libnxp2120.a(cmd_udown.o)
                0x80140b2c                __u_boot_cmd_udown
 .u_boot_cmd    0x80140b44       0x18 common/libcommon.a(cmd_bdinfo.o)
                0x80140b44                __u_boot_cmd_bdinfo
 .u_boot_cmd    0x80140b5c       0x30 common/libcommon.a(cmd_boot.o)
                0x80140b74                __u_boot_cmd_reset
                0x80140b5c                __u_boot_cmd_go
 .u_boot_cmd    0x80140b8c       0x60 common/libcommon.a(cmd_bootm.o)
                0x80140b8c                __u_boot_cmd_bootm
                0x80140bd4                __u_boot_cmd_iminfo
                0x80140bbc                __u_boot_cmd_bootd
                0x80140ba4                __u_boot_cmd_boot
 .u_boot_cmd    0x80140bec       0x18 common/libcommon.a(cmd_console.o)
                0x80140bec                __u_boot_cmd_coninfo
 .u_boot_cmd    0x80140c04       0x18 common/libcommon.a(cmd_echo.o)
                0x80140c04                __u_boot_cmd_echo
 .u_boot_cmd    0x80140c1c       0x18 common/libcommon.a(cmd_exit.o)
                0x80140c1c                __u_boot_cmd_exit
 .u_boot_cmd    0x80140c34       0xc0 common/libcommon.a(cmd_falinux.o)
                0x80140cc4                __u_boot_cmd_rst
                0x80140c64                __u_boot_cmd_ufka
                0x80140c94                __u_boot_cmd_ufd
                0x80140c4c                __u_boot_cmd_ufk
                0x80140c34                __u_boot_cmd_set
                0x80140c7c                __u_boot_cmd_ufr
                0x80140cac                __u_boot_cmd_ufb
                0x80140cdc                __u_boot_cmd_gk
 .u_boot_cmd    0x80140cf4       0x48 common/libcommon.a(cmd_fat.o)
                0x80140d24                __u_boot_cmd_fatinfo
                0x80140cf4                __u_boot_cmd_fatload
                0x80140d0c                __u_boot_cmd_fatls
 .u_boot_cmd    0x80140d3c       0x48 common/libcommon.a(cmd_flash.o)
                0x80140d3c                __u_boot_cmd_flinfo
                0x80140d54                __u_boot_cmd_erase
                0x80140d6c                __u_boot_cmd_protect
 .u_boot_cmd    0x80140d84       0x30 common/libcommon.a(cmd_help.o)
                0x80140d9c                __u_boot_cmd_question_mark
                0x80140d84                __u_boot_cmd_help
 .u_boot_cmd    0x80140db4       0x18 common/libcommon.a(cmd_itest.o)
                0x80140db4                __u_boot_cmd_itest
 .u_boot_cmd    0x80140dcc       0x48 common/libcommon.a(cmd_load.o)
                0x80140dfc                __u_boot_cmd_loady
                0x80140de4                __u_boot_cmd_loadb
                0x80140dcc                __u_boot_cmd_loads
 .u_boot_cmd    0x80140e14       0xf0 common/libcommon.a(cmd_mem.o)
                0x80140e14                __u_boot_cmd_md
                0x80140e8c                __u_boot_cmd_cmp
                0x80140e5c                __u_boot_cmd_mw
                0x80140ed4                __u_boot_cmd_loop
                0x80140ebc                __u_boot_cmd_base
                0x80140e2c                __u_boot_cmd_mm
                0x80140ea4                __u_boot_cmd_crc32
                0x80140e44                __u_boot_cmd_nm
                0x80140eec                __u_boot_cmd_mtest
                0x80140e74                __u_boot_cmd_cp
 .u_boot_cmd    0x80140f04       0x18 common/libcommon.a(cmd_misc.o)
                0x80140f04                __u_boot_cmd_sleep
 .u_boot_cmd    0x80140f1c       0x30 common/libcommon.a(cmd_mmc.o)
                0x80140f34                __u_boot_cmd_mmc
                0x80140f1c                __u_boot_cmd_mmcinfo
 .u_boot_cmd    0x80140f4c       0x30 common/libcommon.a(cmd_nand.o)
                0x80140f4c                __u_boot_cmd_nand
                0x80140f64                __u_boot_cmd_nboot
 .u_boot_cmd    0x80140f7c       0x90 common/libcommon.a(cmd_net.o)
                0x80140fdc                __u_boot_cmd_nfs
                0x80140ff4                __u_boot_cmd_ping
                0x80140fac                __u_boot_cmd_rarpboot
                0x80140f94                __u_boot_cmd_tftpboot
                0x80140f7c                __u_boot_cmd_bootp
                0x80140fc4                __u_boot_cmd_dhcp
 .u_boot_cmd    0x8014100c       0x78 common/libcommon.a(cmd_nvedit.o)
                0x80141024                __u_boot_cmd_editenv
                0x8014106c                __u_boot_cmd_run
                0x8014100c                __u_boot_cmd_saveenv
                0x8014103c                __u_boot_cmd_printenv
                0x80141054                __u_boot_cmd_setenv
 .u_boot_cmd    0x80141084       0x18 common/libcommon.a(cmd_source.o)
                0x80141084                __u_boot_cmd_source
 .u_boot_cmd    0x8014109c       0x48 common/libcommon.a(cmd_test.o)
                0x801410b4                __u_boot_cmd_false
                0x801410cc                __u_boot_cmd_true
                0x8014109c                __u_boot_cmd_test
 .u_boot_cmd    0x801410e4       0x30 common/libcommon.a(cmd_usb.o)
                0x801410e4                __u_boot_cmd_usb
                0x801410fc                __u_boot_cmd_usbboot
 .u_boot_cmd    0x80141114       0x18 common/libcommon.a(cmd_version.o)
                0x80141114                __u_boot_cmd_version
 .u_boot_cmd    0x8014112c       0x18 common/libcommon.a(cmd_ximg.o)
                0x8014112c                __u_boot_cmd_imxtract
 .u_boot_cmd    0x80141144       0x18 common/libcommon.a(cmd_zmac.o)
                0x80141144                __u_boot_cmd_zmac
 .u_boot_cmd    0x8014115c       0x18 common/libcommon.a(hush.o)
                0x8014115c                __u_boot_cmd_showvar
                0x80141174                __u_boot_cmd_end = .
                0x80141174                . = ALIGN (0x4)
                0x80141174                __bss_start = .

.bss            0x80141180    0x86824
 *(.bss)
 .bss           0x80141180        0x0 arch/arm/cpu/arm1176/start.o
 .bss           0x80141180        0x0 arch/arm/cpu/arm1176/nxp2120/libnxp2120.a(cpu.o)
 .bss           0x80141180        0x8 arch/arm/cpu/arm1176/nxp2120/libnxp2120.a(nxp2120.o)
 .bss           0x80141188        0x0 arch/arm/cpu/arm1176/nxp2120/libnxp2120.a(wakeup.o)
 .bss           0x80141188        0x0 arch/arm/cpu/arm1176/nxp2120/libnxp2120.a(pm.o)
 .bss           0x80141188        0x4 arch/arm/cpu/arm1176/nxp2120/libnxp2120.a(serial.o)
 .bss           0x8014118c       0x14 arch/arm/cpu/arm1176/nxp2120/libnxp2120.a(sdhc.o)
 .bss           0x801411a0        0x4 arch/arm/cpu/arm1176/nxp2120/libnxp2120.a(cmd.o)
 .bss           0x801411a4        0x8 arch/arm/cpu/arm1176/nxp2120/libnxp2120.a(cmd_udown.o)
                0x801411a4                nxp_usbdn_size
 .bss           0x801411ac        0x0 arch/arm/cpu/arm1176/nxp2120/libnxp2120.a(BootHeader.o)
 .bss           0x801411ac        0x8 arch/arm/cpu/arm1176/nxp2120/libnxp2120.a(nx_alive.o)
 .bss           0x801411b4        0x8 arch/arm/cpu/arm1176/nxp2120/libnxp2120.a(nx_clkpwr.o)
 .bss           0x801411bc        0x8 arch/arm/cpu/arm1176/nxp2120/libnxp2120.a(nx_dpc.o)
 .bss           0x801411c4       0x10 arch/arm/cpu/arm1176/nxp2120/libnxp2120.a(nx_gpio.o)
 .bss           0x801411d4        0x8 arch/arm/cpu/arm1176/nxp2120/libnxp2120.a(nx_intc.o)
 .bss           0x801411dc        0x8 arch/arm/cpu/arm1176/nxp2120/libnxp2120.a(nx_mcud.o)
 .bss           0x801411e4        0x8 arch/arm/cpu/arm1176/nxp2120/libnxp2120.a(nx_mcus.o)
 .bss           0x801411ec        0x8 arch/arm/cpu/arm1176/nxp2120/libnxp2120.a(nx_mlc.o)
 .bss           0x801411f4        0x8 arch/arm/cpu/arm1176/nxp2120/libnxp2120.a(nx_pwm.o)
 .bss           0x801411fc        0x8 arch/arm/cpu/arm1176/nxp2120/libnxp2120.a(nx_sdhc.o)
 .bss           0x80141204       0x18 arch/arm/cpu/arm1176/nxp2120/libnxp2120.a(nx_timer.o)
 .bss           0x8014121c        0xc arch/arm/cpu/arm1176/nxp2120/libnxp2120.a(nx_uart.o)
 .bss           0x80141228        0x0 arch/arm/cpu/arm1176/nxp2120/libnxp2120.a(reset.o)
 .bss           0x80141228        0x4 arch/arm/lib/libarm.a(board.o)
                0x80141228                monitor_flash_len
 .bss           0x8014122c        0x0 arch/arm/lib/libarm.a(interrupts.o)
 .bss           0x8014122c       0x14 net/libnet.a(eth.o)
 .bss           0x80141240     0x25e4 net/libnet.a(net.o)
                0x801437f4                NetArpWaitTry
                0x801431c4                NetArpWaitPacketMAC
                0x801412e8                NetOurEther
                0x801412f0                NetOurIP
                0x80141398                NetPingIP
                0x801412f4                NetServerIP
                0x801431cc                NetArpWaitTxPacketSize
                0x801431c0                NetArpWaitReplyIP
                0x801412f8                NetRxPackets
                0x801431c8                NetArpWaitTxPacket
                0x8014124c                NetOurNISDomain
                0x801431bc                NetArpWaitPacketIP
                0x80141314                NetState
                0x80141318                BootFile
                0x801412ce                NetServerEther
                0x80141240                NetOurSubnetMask
                0x801412cc                NetBootFileSize
                0x80141310                NetIPID
                0x80141308                NetRxPacket
                0x8014126c                NetOurHostName
                0x80141244                NetOurGatewayIP
                0x801412d4                NetEtherNullAddr
                0x801412dc                NetRestartWrap
                0x801431d0                NetArpWaitPacketBuf
                0x801412e0                NetTxPacket
                0x801412e4                NetBootFileXferSize
                0x80141248                NetOurDNSIP
                0x8014130c                NetRxPacketLen
                0x8014139c                PktBuf
                0x8014128c                NetOurRootPath
                0x801437f0                NetArpWaitTimerStart
 .bss           0x80143824      0x8b0 net/libnet.a(nfs.o)
 .bss           0x801440d4        0x4 net/libnet.a(rarp.o)
                0x801440d4                RarpTry
 .bss           0x801440d8       0xb4 net/libnet.a(tftp.o)
 .bss           0x8014418c       0x14 net/libnet.a(bootp.o)
                0x80144194                NetDHCPServerIP
                0x8014418c                dhcp_state
                0x8014419c                BootpTry
                0x80144198                BootpID
                0x80144190                dhcp_leasetime
 .bss           0x801441a0        0x8 drivers/mmc/libmmc.a(mmc.o)
 .bss           0x801441a8      0x1c8 drivers/mtd/nand/libnand.a(nand.o)
                0x801441a8                nand_info
 .bss           0x80144370        0x0 drivers/mtd/nand/libnand.a(nand_base.o)
 .bss           0x80144370        0x0 drivers/mtd/nand/libnand.a(nand_bbt.o)
 .bss           0x80144370        0x0 drivers/mtd/nand/libnand.a(nand_ecc.o)
 .bss           0x80144370        0x0 drivers/mtd/nand/libnand.a(nand_ids.o)
 .bss           0x80144370        0x0 common/libcommon.a(cmd_bdinfo.o)
 .bss           0x80144370        0x0 common/libcommon.a(cmd_boot.o)
 .bss           0x80144370       0x8c common/libcommon.a(cmd_bootm.o)
 .bss           0x801443fc        0x0 common/libcommon.a(cmd_console.o)
 .bss           0x801443fc        0x0 common/libcommon.a(cmd_echo.o)
 .bss           0x801443fc        0x0 common/libcommon.a(cmd_exit.o)
 .bss           0x801443fc        0x0 common/libcommon.a(cmd_falinux.o)
 .bss           0x801443fc        0x0 common/libcommon.a(cmd_fat.o)
 .bss           0x801443fc        0x0 common/libcommon.a(cmd_flash.o)
 .bss           0x801443fc        0x0 common/libcommon.a(cmd_help.o)
 .bss           0x801443fc        0x0 common/libcommon.a(cmd_itest.o)
 .bss           0x801443fc       0x60 common/libcommon.a(cmd_load.o)
                0x80144404                his_pad_char
                0x80144408                os_data_init
                0x80144424                send_ptr
                0x8014440c                os_data_char
                0x801443fc                his_eol
                0x80144405                his_quote
                0x80144410                send_parms
                0x80144400                his_pad_count
 .bss           0x8014445c       0x14 common/libcommon.a(cmd_mem.o)
                0x80144460                dp_last_size
                0x8014445c                dp_last_addr
                0x80144468                mm_last_size
                0x80144464                mm_last_addr
 .bss           0x80144470        0x0 common/libcommon.a(cmd_misc.o)
 .bss           0x80144470        0x0 common/libcommon.a(cmd_mmc.o)
 .bss           0x80144470        0x0 common/libcommon.a(cmd_nand.o)
 .bss           0x80144470        0x0 common/libcommon.a(cmd_net.o)
 .bss           0x80144470        0x0 common/libcommon.a(cmd_nvedit.o)
 .bss           0x80144470        0x0 common/libcommon.a(cmd_source.o)
 .bss           0x80144470        0x0 common/libcommon.a(cmd_test.o)
 .bss           0x80144470        0x0 common/libcommon.a(cmd_usb.o)
 .bss           0x80144470        0x0 common/libcommon.a(cmd_version.o)
 .bss           0x80144470        0x0 common/libcommon.a(cmd_ximg.o)
 .bss           0x80144470        0x0 common/libcommon.a(cmd_zmac.o)
 .bss           0x80144470        0x0 common/libcommon.a(command.o)
 .bss           0x80144470        0x8 common/libcommon.a(console.o)
 .bss           0x80144478       0x44 common/libcommon.a(dlmalloc.o)
                0x8014447c                mem_malloc_end
                0x80144478                mem_malloc_start
                0x80144480                mem_malloc_brk
 .bss           0x801444bc        0x0 common/libcommon.a(env_common.o)
 .bss           0x801444bc        0x4 common/libcommon.a(env_nand.o)
                0x801444bc                env_ptr
 .bss           0x801444c0        0x0 common/libcommon.a(exports.o)
 .bss           0x801444c0      0x558 common/libcommon.a(hush.o)
                0x801444c4                nesting_level
                0x801444c0                last_return_code
 .bss           0x80144a18        0x0 common/libcommon.a(image.o)
 .bss           0x80144a18     0x5478 common/libcommon.a(main.o)
                0x80144a1c                console_buffer
                0x80144e20                hist_list
                0x80144e70                hist_lines
                0x80144a18                hist_num
 .bss           0x80149e90        0x0 common/libcommon.a(s_record.o)
 .bss           0x80149e90       0x48 common/libcommon.a(stdio.o)
                0x80149e90                stdio_devices
 .bss           0x80149ed8     0xaa1c common/libcommon.a(usb.o)
                0x80149ed8                usb_started
 .bss           0x801548f4      0x5b8 common/libcommon.a(usb_storage.o)
 .bss           0x80154eac      0x43c common/libcommon.a(xyzModem.o)
 .bss           0x801552e8        0x0 board/nxp2120/dtk/libdtk.a(board.o)
 .bss           0x801552e8        0x0 board/nxp2120/dtk/libdtk.a(logo.o)
 .bss           0x801552e8        0x0 lib/libgeneric.a(crc16.o)
 .bss           0x801552e8        0x0 lib/libgeneric.a(crc32.o)
 .bss           0x801552e8        0x0 lib/libgeneric.a(ctype.o)
 .bss           0x801552e8        0x0 lib/libgeneric.a(display_options.o)
 .bss           0x801552e8        0x0 lib/libgeneric.a(div64.o)
 .bss           0x801552e8        0x0 lib/libgeneric.a(gunzip.o)
 .bss           0x801552e8        0x0 lib/libgeneric.a(net_utils.o)
 .bss           0x801552e8        0x4 lib/libgeneric.a(string.o)
                0x801552e8                ___strtok
 .bss           0x801552ec        0x0 lib/libgeneric.a(time.o)
 .bss           0x801552ec        0x0 lib/libgeneric.a(vsprintf.o)
 .bss           0x801552ec        0x0 lib/libgeneric.a(zlib.o)
 .bss           0x801552ec        0xc arch/arm/cpu/arm1176/nxp2120/libnxp2120.a(timer.o)
 .bss           0x801552f8        0x0 arch/arm/cpu/arm1176/nxp2120/libnxp2120.a(nand.o)
 .bss           0x801552f8    0x42490 arch/arm/cpu/arm1176/nxp2120/libnxp2120.a(nand_ecc.o)
                0x801552f8                elp
 .bss           0x80197788        0x4 arch/arm/lib/libarm.a(bootm.o)
 .bss           0x8019778c        0x0 arch/arm/lib/libarm.a(cache.o)
 .bss           0x8019778c        0x0 arch/arm/lib/libarm.a(reset.o)
 .bss           0x8019778c    0x30008 fs/fat/libfat.a(fat.o)
                0x8019778c                get_vfatname_block
                0x801a778c                get_dentfromdir_block
                0x801b778c                do_fat_read_block
 .bss           0x801c7794        0x0 disk/libdisk.a(part.o)
 .bss           0x801c7794        0x0 disk/libdisk.a(part_dos.o)
 .bss           0x801c7794        0x0 drivers/mtd/nand/libnand.a(nand_util.o)
 .bss           0x801c7794       0xe4 drivers/net/libnet.a(dm9000x.o)
 *fill*         0x801c7878        0x8 00
 .bss           0x801c7880      0x120 drivers/usb/host/libusb_host.a(ehci-hcd.o)
                0x801c7880                rootdev
                0x801c7884                hccr
                0x801c7888                hcor
 .bss           0x801c79a0        0x4 drivers/usb/host/libusb_host.a(ehci-nxp2120.o)
 .bss           0x801c79a4        0x0 arch/arm/cpu/arm1176/libarm1176.a(cpu.o)
 .bss           0x801c79a4        0x0 arch/arm/lib/libarm.a(cache-cp15.o)
 .bss           0x801c79a4        0x0 /staff/I15-0248_webcon_u-boot/bootloader/arch/arm/lib/eabi_compat.o
 .bss           0x801c79a4        0x0 /usr/lib/gcc/arm-generic-linux-gnueabi/4.3.2/libgcc.a(_udivsi3.o)
 .bss           0x801c79a4        0x0 /usr/lib/gcc/arm-generic-linux-gnueabi/4.3.2/libgcc.a(_divsi3.o)
 .bss           0x801c79a4        0x0 /usr/lib/gcc/arm-generic-linux-gnueabi/4.3.2/libgcc.a(_lshrdi3.o)
 .bss           0x801c79a4        0x0 /usr/lib/gcc/arm-generic-linux-gnueabi/4.3.2/libgcc.a(_ashrdi3.o)
 .bss           0x801c79a4        0x0 /usr/lib/gcc/arm-generic-linux-gnueabi/4.3.2/libgcc.a(_ashldi3.o)
 .bss           0x801c79a4        0x0 /usr/lib/gcc/arm-generic-linux-gnueabi/4.3.2/libgcc.a(_dvmd_lnx.o)
                0x801c79a4                . = ALIGN (0x4)
                0x801c79a4                _end = .
Address of section .text set to 0x80100000
LOAD arch/arm/cpu/arm1176/start.o
START GROUP
LOAD lib/libgeneric.a
LOAD lib/lzma/liblzma.a
LOAD lib/lzo/liblzo.a
LOAD arch/arm/cpu/arm1176/libarm1176.a
LOAD arch/arm/cpu/arm1176/nxp2120/libnxp2120.a
LOAD arch/arm/lib/libarm.a
LOAD fs/cramfs/libcramfs.a
LOAD fs/fat/libfat.a
LOAD fs/fdos/libfdos.a
LOAD fs/jffs2/libjffs2.a
LOAD fs/reiserfs/libreiserfs.a
LOAD fs/ext2/libext2fs.a
LOAD fs/yaffs2/libyaffs2.a
LOAD fs/ubifs/libubifs.a
LOAD net/libnet.a
LOAD disk/libdisk.a
LOAD drivers/bios_emulator/libatibiosemu.a
LOAD drivers/block/libblock.a
LOAD drivers/dma/libdma.a
LOAD drivers/fpga/libfpga.a
LOAD drivers/gpio/libgpio.a
LOAD drivers/hwmon/libhwmon.a
LOAD drivers/i2c/libi2c.a
LOAD drivers/input/libinput.a
LOAD drivers/misc/libmisc.a
LOAD drivers/mmc/libmmc.a
LOAD drivers/mtd/libmtd.a
LOAD drivers/mtd/nand/libnand.a
LOAD drivers/mtd/onenand/libonenand.a
LOAD drivers/mtd/ubi/libubi.a
LOAD drivers/mtd/spi/libspi_flash.a
LOAD drivers/net/libnet.a
LOAD drivers/net/phy/libphy.a
LOAD drivers/pci/libpci.a
LOAD drivers/pcmcia/libpcmcia.a
LOAD drivers/power/libpower.a
LOAD drivers/spi/libspi.a
LOAD drivers/rtc/librtc.a
LOAD drivers/serial/libserial.a
LOAD drivers/twserial/libtws.a
LOAD drivers/usb/gadget/libusb_gadget.a
LOAD drivers/usb/host/libusb_host.a
LOAD drivers/usb/musb/libusb_musb.a
LOAD drivers/usb/phy/libusb_phy.a
LOAD drivers/video/libvideo.a
LOAD drivers/watchdog/libwatchdog.a
LOAD common/libcommon.a
LOAD lib/libfdt/libfdt.a
LOAD api/libapi.a
LOAD post/libpost.a
LOAD board/nxp2120/dtk/libdtk.a
END GROUP
LOAD /staff/I15-0248_webcon_u-boot/bootloader/arch/arm/lib/eabi_compat.o
LOAD /usr/lib/gcc/arm-generic-linux-gnueabi/4.3.2/libgcc.a
OUTPUT(u-boot elf32-littlearm)

.ARM.attributes
                0x00000000       0x25
 .ARM.attributes
                0x00000000       0x18 arch/arm/cpu/arm1176/start.o
 .ARM.attributes
                0x00000018       0x28 arch/arm/cpu/arm1176/nxp2120/libnxp2120.a(cpu.o)
 .ARM.attributes
                0x00000040       0x28 arch/arm/cpu/arm1176/nxp2120/libnxp2120.a(nxp2120.o)
 .ARM.attributes
                0x00000068       0x28 arch/arm/cpu/arm1176/nxp2120/libnxp2120.a(wakeup.o)
 .ARM.attributes
                0x00000090       0x18 arch/arm/cpu/arm1176/nxp2120/libnxp2120.a(pm.o)
 .ARM.attributes
                0x000000a8       0x28 arch/arm/cpu/arm1176/nxp2120/libnxp2120.a(serial.o)
 .ARM.attributes
                0x000000d0       0x28 arch/arm/cpu/arm1176/nxp2120/libnxp2120.a(sdhc.o)
 .ARM.attributes
                0x000000f8       0x28 arch/arm/cpu/arm1176/nxp2120/libnxp2120.a(cmd.o)
 .ARM.attributes
                0x00000120       0x28 arch/arm/cpu/arm1176/nxp2120/libnxp2120.a(cmd_udown.o)
 .ARM.attributes
                0x00000148       0x28 arch/arm/cpu/arm1176/nxp2120/libnxp2120.a(BootHeader.o)
 .ARM.attributes
                0x00000170       0x28 arch/arm/cpu/arm1176/nxp2120/libnxp2120.a(nx_alive.o)
 .ARM.attributes
                0x00000198       0x28 arch/arm/cpu/arm1176/nxp2120/libnxp2120.a(nx_clkpwr.o)
 .ARM.attributes
                0x000001c0       0x28 arch/arm/cpu/arm1176/nxp2120/libnxp2120.a(nx_dpc.o)
 .ARM.attributes
                0x000001e8       0x28 arch/arm/cpu/arm1176/nxp2120/libnxp2120.a(nx_gpio.o)
 .ARM.attributes
                0x00000210       0x28 arch/arm/cpu/arm1176/nxp2120/libnxp2120.a(nx_intc.o)
 .ARM.attributes
                0x00000238       0x28 arch/arm/cpu/arm1176/nxp2120/libnxp2120.a(nx_mcud.o)
 .ARM.attributes
                0x00000260       0x28 arch/arm/cpu/arm1176/nxp2120/libnxp2120.a(nx_mcus.o)
 .ARM.attributes
                0x00000288       0x28 arch/arm/cpu/arm1176/nxp2120/libnxp2120.a(nx_mlc.o)
 .ARM.attributes
                0x000002b0       0x28 arch/arm/cpu/arm1176/nxp2120/libnxp2120.a(nx_pwm.o)
 .ARM.attributes
                0x000002d8       0x28 arch/arm/cpu/arm1176/nxp2120/libnxp2120.a(nx_sdhc.o)
 .ARM.attributes
                0x00000300       0x28 arch/arm/cpu/arm1176/nxp2120/libnxp2120.a(nx_timer.o)
 .ARM.attributes
                0x00000328       0x28 arch/arm/cpu/arm1176/nxp2120/libnxp2120.a(nx_uart.o)
 .ARM.attributes
                0x00000350       0x28 arch/arm/cpu/arm1176/nxp2120/libnxp2120.a(reset.o)
 .ARM.attributes
                0x00000378       0x28 arch/arm/lib/libarm.a(board.o)
 .ARM.attributes
                0x000003a0       0x28 arch/arm/lib/libarm.a(interrupts.o)
 .ARM.attributes
                0x000003c8       0x28 net/libnet.a(eth.o)
 .ARM.attributes
                0x000003f0       0x28 net/libnet.a(net.o)
 .ARM.attributes
                0x00000418       0x28 net/libnet.a(nfs.o)
 .ARM.attributes
                0x00000440       0x28 net/libnet.a(rarp.o)
 .ARM.attributes
                0x00000468       0x28 net/libnet.a(tftp.o)
 .ARM.attributes
                0x00000490       0x28 net/libnet.a(bootp.o)
 .ARM.attributes
                0x000004b8       0x28 drivers/mmc/libmmc.a(mmc.o)
 .ARM.attributes
                0x000004e0       0x28 drivers/mtd/nand/libnand.a(nand.o)
 .ARM.attributes
                0x00000508       0x28 drivers/mtd/nand/libnand.a(nand_base.o)
 .ARM.attributes
                0x00000530       0x28 drivers/mtd/nand/libnand.a(nand_bbt.o)
 .ARM.attributes
                0x00000558       0x28 drivers/mtd/nand/libnand.a(nand_ecc.o)
 .ARM.attributes
                0x00000580       0x26 drivers/mtd/nand/libnand.a(nand_ids.o)
 .ARM.attributes
                0x000005a6       0x28 common/libcommon.a(cmd_bdinfo.o)
 .ARM.attributes
                0x000005ce       0x28 common/libcommon.a(cmd_boot.o)
 .ARM.attributes
                0x000005f6       0x28 common/libcommon.a(cmd_bootm.o)
 .ARM.attributes
                0x0000061e       0x28 common/libcommon.a(cmd_console.o)
 .ARM.attributes
                0x00000646       0x28 common/libcommon.a(cmd_echo.o)
 .ARM.attributes
                0x0000066e       0x28 common/libcommon.a(cmd_exit.o)
 .ARM.attributes
                0x00000696       0x28 common/libcommon.a(cmd_falinux.o)
 .ARM.attributes
                0x000006be       0x28 common/libcommon.a(cmd_fat.o)
 .ARM.attributes
                0x000006e6       0x28 common/libcommon.a(cmd_flash.o)
 .ARM.attributes
                0x0000070e       0x28 common/libcommon.a(cmd_help.o)
 .ARM.attributes
                0x00000736       0x28 common/libcommon.a(cmd_itest.o)
 .ARM.attributes
                0x0000075e       0x28 common/libcommon.a(cmd_load.o)
 .ARM.attributes
                0x00000786       0x28 common/libcommon.a(cmd_mem.o)
 .ARM.attributes
                0x000007ae       0x28 common/libcommon.a(cmd_misc.o)
 .ARM.attributes
                0x000007d6       0x28 common/libcommon.a(cmd_mmc.o)
 .ARM.attributes
                0x000007fe       0x28 common/libcommon.a(cmd_nand.o)
 .ARM.attributes
                0x00000826       0x28 common/libcommon.a(cmd_net.o)
 .ARM.attributes
                0x0000084e       0x28 common/libcommon.a(cmd_nvedit.o)
 .ARM.attributes
                0x00000876       0x28 common/libcommon.a(cmd_source.o)
 .ARM.attributes
                0x0000089e       0x28 common/libcommon.a(cmd_test.o)
 .ARM.attributes
                0x000008c6       0x28 common/libcommon.a(cmd_usb.o)
 .ARM.attributes
                0x000008ee       0x28 common/libcommon.a(cmd_version.o)
 .ARM.attributes
                0x00000916       0x28 common/libcommon.a(cmd_ximg.o)
 .ARM.attributes
                0x0000093e       0x28 common/libcommon.a(cmd_zmac.o)
 .ARM.attributes
                0x00000966       0x28 common/libcommon.a(command.o)
 .ARM.attributes
                0x0000098e       0x28 common/libcommon.a(console.o)
 .ARM.attributes
                0x000009b6       0x28 common/libcommon.a(dlmalloc.o)
 .ARM.attributes
                0x000009de       0x28 common/libcommon.a(env_common.o)
 .ARM.attributes
                0x00000a06       0x28 common/libcommon.a(env_nand.o)
 .ARM.attributes
                0x00000a2e       0x28 common/libcommon.a(exports.o)
 .ARM.attributes
                0x00000a56       0x28 common/libcommon.a(hush.o)
 .ARM.attributes
                0x00000a7e       0x28 common/libcommon.a(image.o)
 .ARM.attributes
                0x00000aa6       0x28 common/libcommon.a(main.o)
 .ARM.attributes
                0x00000ace       0x28 common/libcommon.a(s_record.o)
 .ARM.attributes
                0x00000af6       0x28 common/libcommon.a(stdio.o)
 .ARM.attributes
                0x00000b1e       0x28 common/libcommon.a(usb.o)
 .ARM.attributes
                0x00000b46       0x28 common/libcommon.a(usb_storage.o)
 .ARM.attributes
                0x00000b6e       0x28 common/libcommon.a(xyzModem.o)
 .ARM.attributes
                0x00000b96       0x28 board/nxp2120/dtk/libdtk.a(board.o)
 .ARM.attributes
                0x00000bbe       0x28 board/nxp2120/dtk/libdtk.a(logo.o)
 .ARM.attributes
                0x00000be6       0x28 lib/libgeneric.a(crc16.o)
 .ARM.attributes
                0x00000c0e       0x28 lib/libgeneric.a(crc32.o)
 .ARM.attributes
                0x00000c36       0x26 lib/libgeneric.a(ctype.o)
 .ARM.attributes
                0x00000c5c       0x28 lib/libgeneric.a(display_options.o)
 .ARM.attributes
                0x00000c84       0x28 lib/libgeneric.a(div64.o)
 .ARM.attributes
                0x00000cac       0x28 lib/libgeneric.a(gunzip.o)
 .ARM.attributes
                0x00000cd4       0x28 lib/libgeneric.a(net_utils.o)
 .ARM.attributes
                0x00000cfc       0x28 lib/libgeneric.a(string.o)
 .ARM.attributes
                0x00000d24       0x28 lib/libgeneric.a(time.o)
 .ARM.attributes
                0x00000d4c       0x28 lib/libgeneric.a(vsprintf.o)
 .ARM.attributes
                0x00000d74       0x28 lib/libgeneric.a(zlib.o)
 .ARM.attributes
                0x00000d9c       0x28 arch/arm/cpu/arm1176/nxp2120/libnxp2120.a(timer.o)
 .ARM.attributes
                0x00000dc4       0x28 arch/arm/cpu/arm1176/nxp2120/libnxp2120.a(nand.o)
 .ARM.attributes
                0x00000dec       0x28 arch/arm/cpu/arm1176/nxp2120/libnxp2120.a(nand_ecc.o)
 .ARM.attributes
                0x00000e14       0x28 arch/arm/lib/libarm.a(bootm.o)
 .ARM.attributes
                0x00000e3c       0x28 arch/arm/lib/libarm.a(cache.o)
 .ARM.attributes
                0x00000e64       0x28 arch/arm/lib/libarm.a(reset.o)
 .ARM.attributes
                0x00000e8c       0x28 fs/fat/libfat.a(fat.o)
 .ARM.attributes
                0x00000eb4       0x28 disk/libdisk.a(part.o)
 .ARM.attributes
                0x00000edc       0x28 disk/libdisk.a(part_dos.o)
 .ARM.attributes
                0x00000f04       0x28 drivers/mtd/nand/libnand.a(nand_util.o)
 .ARM.attributes
                0x00000f2c       0x28 drivers/net/libnet.a(dm9000x.o)
 .ARM.attributes
                0x00000f54       0x28 drivers/usb/host/libusb_host.a(ehci-hcd.o)
 .ARM.attributes
                0x00000f7c       0x28 drivers/usb/host/libusb_host.a(ehci-nxp2120.o)
 .ARM.attributes
                0x00000fa4       0x28 arch/arm/cpu/arm1176/libarm1176.a(cpu.o)
 .ARM.attributes
                0x00000fcc       0x28 arch/arm/lib/libarm.a(cache-cp15.o)
 .ARM.attributes
                0x00000ff4       0x28 /staff/I15-0248_webcon_u-boot/bootloader/arch/arm/lib/eabi_compat.o
 .ARM.attributes
                0x0000101c       0x17 /usr/lib/gcc/arm-generic-linux-gnueabi/4.3.2/libgcc.a(_udivsi3.o)
 .ARM.attributes
                0x00001033       0x17 /usr/lib/gcc/arm-generic-linux-gnueabi/4.3.2/libgcc.a(_divsi3.o)
 .ARM.attributes
                0x0000104a       0x17 /usr/lib/gcc/arm-generic-linux-gnueabi/4.3.2/libgcc.a(_lshrdi3.o)
 .ARM.attributes
                0x00001061       0x17 /usr/lib/gcc/arm-generic-linux-gnueabi/4.3.2/libgcc.a(_ashrdi3.o)
 .ARM.attributes
                0x00001078       0x17 /usr/lib/gcc/arm-generic-linux-gnueabi/4.3.2/libgcc.a(_ashldi3.o)
 .ARM.attributes
                0x0000108f       0x17 /usr/lib/gcc/arm-generic-linux-gnueabi/4.3.2/libgcc.a(_dvmd_lnx.o)

.debug_line     0x00000000     0xed9b
 .debug_line    0x00000000       0x98 arch/arm/cpu/arm1176/start.o
 .debug_line    0x00000098      0x101 arch/arm/cpu/arm1176/nxp2120/libnxp2120.a(cpu.o)
 .debug_line    0x00000199      0x2dc arch/arm/cpu/arm1176/nxp2120/libnxp2120.a(nxp2120.o)
 .debug_line    0x00000475       0xd5 arch/arm/cpu/arm1176/nxp2120/libnxp2120.a(wakeup.o)
 .debug_line    0x0000054a       0x8d arch/arm/cpu/arm1176/nxp2120/libnxp2120.a(pm.o)
 .debug_line    0x000005d7      0x20a arch/arm/cpu/arm1176/nxp2120/libnxp2120.a(serial.o)
 .debug_line    0x000007e1      0x42e arch/arm/cpu/arm1176/nxp2120/libnxp2120.a(sdhc.o)
 .debug_line    0x00000c0f      0x20c arch/arm/cpu/arm1176/nxp2120/libnxp2120.a(cmd.o)
 .debug_line    0x00000e1b      0x25a arch/arm/cpu/arm1176/nxp2120/libnxp2120.a(cmd_udown.o)
 .debug_line    0x00001075      0x194 arch/arm/cpu/arm1176/nxp2120/libnxp2120.a(BootHeader.o)
 .debug_line    0x00001209      0x1a9 arch/arm/cpu/arm1176/nxp2120/libnxp2120.a(nx_alive.o)
 .debug_line    0x000013b2      0x22c arch/arm/cpu/arm1176/nxp2120/libnxp2120.a(nx_clkpwr.o)
 .debug_line    0x000015de      0x41c arch/arm/cpu/arm1176/nxp2120/libnxp2120.a(nx_dpc.o)
 .debug_line    0x000019fa      0x1be arch/arm/cpu/arm1176/nxp2120/libnxp2120.a(nx_gpio.o)
 .debug_line    0x00001bb8      0x155 arch/arm/cpu/arm1176/nxp2120/libnxp2120.a(nx_intc.o)
 .debug_line    0x00001d0d      0x331 arch/arm/cpu/arm1176/nxp2120/libnxp2120.a(nx_mcud.o)
 .debug_line    0x0000203e      0x3ca arch/arm/cpu/arm1176/nxp2120/libnxp2120.a(nx_mcus.o)
 .debug_line    0x00002408      0x418 arch/arm/cpu/arm1176/nxp2120/libnxp2120.a(nx_mlc.o)
 .debug_line    0x00002820      0x146 arch/arm/cpu/arm1176/nxp2120/libnxp2120.a(nx_pwm.o)
 .debug_line    0x00002966      0x289 arch/arm/cpu/arm1176/nxp2120/libnxp2120.a(nx_sdhc.o)
 .debug_line    0x00002bef      0x191 arch/arm/cpu/arm1176/nxp2120/libnxp2120.a(nx_timer.o)
 .debug_line    0x00002d80      0x531 arch/arm/cpu/arm1176/nxp2120/libnxp2120.a(nx_uart.o)
 .debug_line    0x000032b1       0x7e arch/arm/cpu/arm1176/nxp2120/libnxp2120.a(reset.o)
 .debug_line    0x0000332f      0x1a3 arch/arm/lib/libarm.a(board.o)
 .debug_line    0x000034d2       0xde arch/arm/lib/libarm.a(interrupts.o)
 .debug_line    0x000035b0      0x231 net/libnet.a(eth.o)
 .debug_line    0x000037e1      0x66c net/libnet.a(net.o)
 .debug_line    0x00003e4d      0x37c net/libnet.a(nfs.o)
 .debug_line    0x000041c9       0xff net/libnet.a(rarp.o)
 .debug_line    0x000042c8      0x2a3 net/libnet.a(tftp.o)
 .debug_line    0x0000456b      0x3b4 net/libnet.a(bootp.o)
 .debug_line    0x0000491f      0x5b5 drivers/mmc/libmmc.a(mmc.o)
 .debug_line    0x00004ed4      0x1b4 drivers/mtd/nand/libnand.a(nand.o)
 .debug_line    0x00005088      0xa5d drivers/mtd/nand/libnand.a(nand_base.o)
 .debug_line    0x00005ae5      0x636 drivers/mtd/nand/libnand.a(nand_bbt.o)
 .debug_line    0x0000611b      0x1d0 drivers/mtd/nand/libnand.a(nand_ecc.o)
 .debug_line    0x000062eb       0x70 drivers/mtd/nand/libnand.a(nand_ids.o)
 .debug_line    0x0000635b      0x127 common/libcommon.a(cmd_bdinfo.o)
 .debug_line    0x00006482       0xc8 common/libcommon.a(cmd_boot.o)
 .debug_line    0x0000654a      0x38e common/libcommon.a(cmd_bootm.o)
 .debug_line    0x000068d8       0xeb common/libcommon.a(cmd_console.o)
 .debug_line    0x000069c3       0x87 common/libcommon.a(cmd_echo.o)
 .debug_line    0x00006a4a       0x7d common/libcommon.a(cmd_exit.o)
 .debug_line    0x00006ac7      0x1b5 common/libcommon.a(cmd_falinux.o)
 .debug_line    0x00006c7c      0x130 common/libcommon.a(cmd_fat.o)
 .debug_line    0x00006dac       0x93 common/libcommon.a(cmd_flash.o)
 .debug_line    0x00006e3f       0x7e common/libcommon.a(cmd_help.o)
 .debug_line    0x00006ebd      0x10d common/libcommon.a(cmd_itest.o)
 .debug_line    0x00006fca      0x443 common/libcommon.a(cmd_load.o)
 .debug_line    0x0000740d      0x241 common/libcommon.a(cmd_mem.o)
 .debug_line    0x0000764e       0xc8 common/libcommon.a(cmd_misc.o)
 .debug_line    0x00007716      0x182 common/libcommon.a(cmd_mmc.o)
 .debug_line    0x00007898      0x390 common/libcommon.a(cmd_nand.o)
 .debug_line    0x00007c28      0x141 common/libcommon.a(cmd_net.o)
 .debug_line    0x00007d69      0x296 common/libcommon.a(cmd_nvedit.o)
 .debug_line    0x00007fff      0x19e common/libcommon.a(cmd_source.o)
 .debug_line    0x0000819d       0xcf common/libcommon.a(cmd_test.o)
 .debug_line    0x0000826c      0x38c common/libcommon.a(cmd_usb.o)
 .debug_line    0x000085f8       0x7f common/libcommon.a(cmd_version.o)
 .debug_line    0x00008677      0x1b7 common/libcommon.a(cmd_ximg.o)
 .debug_line    0x0000882e      0x130 common/libcommon.a(cmd_zmac.o)
 .debug_line    0x0000895e       0xe3 common/libcommon.a(command.o)
 .debug_line    0x00008a41      0x269 common/libcommon.a(console.o)
 .debug_line    0x00008caa      0x3e4 common/libcommon.a(dlmalloc.o)
 .debug_line    0x0000908e      0x166 common/libcommon.a(env_common.o)
 .debug_line    0x000091f4      0x269 common/libcommon.a(env_nand.o)
 .debug_line    0x0000945d      0x145 common/libcommon.a(exports.o)
 .debug_line    0x000095a2      0x6a6 common/libcommon.a(hush.o)
 .debug_line    0x00009c48      0x37a common/libcommon.a(image.o)
 .debug_line    0x00009fc2      0x391 common/libcommon.a(main.o)
 .debug_line    0x0000a353       0xe2 common/libcommon.a(s_record.o)
 .debug_line    0x0000a435      0x195 common/libcommon.a(stdio.o)
 .debug_line    0x0000a5ca      0x468 common/libcommon.a(usb.o)
 .debug_line    0x0000aa32      0x55f common/libcommon.a(usb_storage.o)
 .debug_line    0x0000af91      0x29a common/libcommon.a(xyzModem.o)
 .debug_line    0x0000b22b      0x392 board/nxp2120/dtk/libdtk.a(board.o)
 .debug_line    0x0000b5bd      0x20e board/nxp2120/dtk/libdtk.a(logo.o)
 .debug_line    0x0000b7cb       0xc4 lib/libgeneric.a(crc16.o)
 .debug_line    0x0000b88f      0x13f lib/libgeneric.a(crc32.o)
 .debug_line    0x0000b9ce       0x28 lib/libgeneric.a(ctype.o)
 .debug_line    0x0000b9f6      0x13a lib/libgeneric.a(display_options.o)
 .debug_line    0x0000bb30      0x126 lib/libgeneric.a(div64.o)
 .debug_line    0x0000bc56       0xcd lib/libgeneric.a(gunzip.o)
 .debug_line    0x0000bd23      0x158 lib/libgeneric.a(net_utils.o)
 .debug_line    0x0000be7b      0x213 lib/libgeneric.a(string.o)
 .debug_line    0x0000c08e       0x7e lib/libgeneric.a(time.o)
 .debug_line    0x0000c10c      0x3b3 lib/libgeneric.a(vsprintf.o)
 .debug_line    0x0000c4bf      0x664 lib/libgeneric.a(zlib.o)
 .debug_line    0x0000cb23      0x1bd arch/arm/cpu/arm1176/nxp2120/libnxp2120.a(timer.o)
 .debug_line    0x0000cce0      0x1af arch/arm/cpu/arm1176/nxp2120/libnxp2120.a(nand.o)
 .debug_line    0x0000ce8f      0x44f arch/arm/cpu/arm1176/nxp2120/libnxp2120.a(nand_ecc.o)
 .debug_line    0x0000d2de      0x162 arch/arm/lib/libarm.a(bootm.o)
 .debug_line    0x0000d440       0x37 arch/arm/lib/libarm.a(cache.o)
 .debug_line    0x0000d477       0x7c arch/arm/lib/libarm.a(reset.o)
 .debug_line    0x0000d4f3      0x47f fs/fat/libfat.a(fat.o)
 .debug_line    0x0000d972      0x1aa disk/libdisk.a(part.o)
 .debug_line    0x0000db1c      0x1a3 disk/libdisk.a(part_dos.o)
 .debug_line    0x0000dcbf      0x3b1 drivers/mtd/nand/libnand.a(nand_util.o)
 .debug_line    0x0000e070      0x3d8 drivers/net/libnet.a(dm9000x.o)
 .debug_line    0x0000e448      0x340 drivers/usb/host/libusb_host.a(ehci-hcd.o)
 .debug_line    0x0000e788      0x19c drivers/usb/host/libusb_host.a(ehci-nxp2120.o)
 .debug_line    0x0000e924       0x3f arch/arm/cpu/arm1176/libarm1176.a(cpu.o)
 .debug_line    0x0000e963      0x144 arch/arm/lib/libarm.a(cache-cp15.o)
 .debug_line    0x0000eaa7       0x42 /staff/I15-0248_webcon_u-boot/bootloader/arch/arm/lib/eabi_compat.o
 .debug_line    0x0000eae9       0x87 /usr/lib/gcc/arm-generic-linux-gnueabi/4.3.2/libgcc.a(_udivsi3.o)
 .debug_line    0x0000eb70       0x93 /usr/lib/gcc/arm-generic-linux-gnueabi/4.3.2/libgcc.a(_divsi3.o)
 .debug_line    0x0000ec03       0x66 /usr/lib/gcc/arm-generic-linux-gnueabi/4.3.2/libgcc.a(_lshrdi3.o)
 .debug_line    0x0000ec69       0x66 /usr/lib/gcc/arm-generic-linux-gnueabi/4.3.2/libgcc.a(_ashrdi3.o)
 .debug_line    0x0000eccf       0x66 /usr/lib/gcc/arm-generic-linux-gnueabi/4.3.2/libgcc.a(_ashldi3.o)
 .debug_line    0x0000ed35       0x66 /usr/lib/gcc/arm-generic-linux-gnueabi/4.3.2/libgcc.a(_dvmd_lnx.o)

.debug_info     0x00000000    0x46b48
 .debug_info    0x00000000       0x6c arch/arm/cpu/arm1176/start.o
 .debug_info    0x0000006c      0x299 arch/arm/cpu/arm1176/nxp2120/libnxp2120.a(cpu.o)
 .debug_info    0x00000305      0x9db arch/arm/cpu/arm1176/nxp2120/libnxp2120.a(nxp2120.o)
 .debug_info    0x00000ce0      0x165 arch/arm/cpu/arm1176/nxp2120/libnxp2120.a(wakeup.o)
 .debug_info    0x00000e45       0x71 arch/arm/cpu/arm1176/nxp2120/libnxp2120.a(pm.o)
 .debug_info    0x00000eb6      0x3ea arch/arm/cpu/arm1176/nxp2120/libnxp2120.a(serial.o)
 .debug_info    0x000012a0      0xfb7 arch/arm/cpu/arm1176/nxp2120/libnxp2120.a(sdhc.o)
 .debug_info    0x00002257     0x1810 arch/arm/cpu/arm1176/nxp2120/libnxp2120.a(cmd.o)
 .debug_info    0x00003a67      0x956 arch/arm/cpu/arm1176/nxp2120/libnxp2120.a(cmd_udown.o)
 .debug_info    0x000043bd      0x4ee arch/arm/cpu/arm1176/nxp2120/libnxp2120.a(BootHeader.o)
 .debug_info    0x000048ab      0xc7c arch/arm/cpu/arm1176/nxp2120/libnxp2120.a(nx_alive.o)
 .debug_info    0x00005527     0x104e arch/arm/cpu/arm1176/nxp2120/libnxp2120.a(nx_clkpwr.o)
 .debug_info    0x00006575     0x20a5 arch/arm/cpu/arm1176/nxp2120/libnxp2120.a(nx_dpc.o)
 .debug_info    0x0000861a      0xf61 arch/arm/cpu/arm1176/nxp2120/libnxp2120.a(nx_gpio.o)
 .debug_info    0x0000957b      0x765 arch/arm/cpu/arm1176/nxp2120/libnxp2120.a(nx_intc.o)
 .debug_info    0x00009ce0     0x2111 arch/arm/cpu/arm1176/nxp2120/libnxp2120.a(nx_mcud.o)
 .debug_info    0x0000bdf1     0x1b33 arch/arm/cpu/arm1176/nxp2120/libnxp2120.a(nx_mcus.o)
 .debug_info    0x0000d924     0x25ed arch/arm/cpu/arm1176/nxp2120/libnxp2120.a(nx_mlc.o)
 .debug_info    0x0000ff11      0x7b0 arch/arm/cpu/arm1176/nxp2120/libnxp2120.a(nx_pwm.o)
 .debug_info    0x000106c1     0x1c93 arch/arm/cpu/arm1176/nxp2120/libnxp2120.a(nx_sdhc.o)
 .debug_info    0x00012354      0xdf1 arch/arm/cpu/arm1176/nxp2120/libnxp2120.a(nx_timer.o)
 .debug_info    0x00013145     0x308a arch/arm/cpu/arm1176/nxp2120/libnxp2120.a(nx_uart.o)
 .debug_info    0x000161cf       0xa6 arch/arm/cpu/arm1176/nxp2120/libnxp2120.a(reset.o)
 .debug_info    0x00016275      0x480 arch/arm/lib/libarm.a(board.o)
 .debug_info    0x000166f5      0x261 arch/arm/lib/libarm.a(interrupts.o)
 .debug_info    0x00016956      0x927 net/libnet.a(eth.o)
 .debug_info    0x0001727d     0x1832 net/libnet.a(net.o)
 .debug_info    0x00018aaf      0xb76 net/libnet.a(nfs.o)
 .debug_info    0x00019625      0x255 net/libnet.a(rarp.o)
 .debug_info    0x0001987a      0x50f net/libnet.a(tftp.o)
 .debug_info    0x00019d89      0xc8d net/libnet.a(bootp.o)
 .debug_info    0x0001aa16     0x1579 drivers/mmc/libmmc.a(mmc.o)
 .debug_info    0x0001bf8f     0x1278 drivers/mtd/nand/libnand.a(nand.o)
 .debug_info    0x0001d207     0x3735 drivers/mtd/nand/libnand.a(nand_base.o)
 .debug_info    0x0002093c     0x2369 drivers/mtd/nand/libnand.a(nand_bbt.o)
 .debug_info    0x00022ca5      0x9d1 drivers/mtd/nand/libnand.a(nand_ecc.o)
 .debug_info    0x00023676      0x152 drivers/mtd/nand/libnand.a(nand_ids.o)
 .debug_info    0x000237c8      0x464 common/libcommon.a(cmd_bdinfo.o)
 .debug_info    0x00023c2c      0x23a common/libcommon.a(cmd_boot.o)
 .debug_info    0x00023e66     0x1215 common/libcommon.a(cmd_bootm.o)
 .debug_info    0x0002507b      0x35b common/libcommon.a(cmd_console.o)
 .debug_info    0x000253d6      0x1c5 common/libcommon.a(cmd_echo.o)
 .debug_info    0x0002559b      0x198 common/libcommon.a(cmd_exit.o)
 .debug_info    0x00025733      0x739 common/libcommon.a(cmd_falinux.o)
 .debug_info    0x00025e6c      0x4fc common/libcommon.a(cmd_fat.o)
 .debug_info    0x00026368      0x27f common/libcommon.a(cmd_flash.o)
 .debug_info    0x000265e7      0x1b7 common/libcommon.a(cmd_help.o)
 .debug_info    0x0002679e      0x46d common/libcommon.a(cmd_itest.o)
 .debug_info    0x00026c0b      0xe0a common/libcommon.a(cmd_load.o)
 .debug_info    0x00027a15      0x9fd common/libcommon.a(cmd_mem.o)
 .debug_info    0x00028412      0x1b0 common/libcommon.a(cmd_misc.o)
 .debug_info    0x000285c2      0x80c common/libcommon.a(cmd_mmc.o)
 .debug_info    0x00028dce     0x1830 common/libcommon.a(cmd_nand.o)
 .debug_info    0x0002a5fe      0x5e8 common/libcommon.a(cmd_net.o)
 .debug_info    0x0002abe6      0x927 common/libcommon.a(cmd_nvedit.o)
 .debug_info    0x0002b50d      0x48f common/libcommon.a(cmd_source.o)
 .debug_info    0x0002b99c      0x2b1 common/libcommon.a(cmd_test.o)
 .debug_info    0x0002bc4d      0xfb1 common/libcommon.a(cmd_usb.o)
 .debug_info    0x0002cbfe      0x1a3 common/libcommon.a(cmd_version.o)
 .debug_info    0x0002cda1      0x481 common/libcommon.a(cmd_ximg.o)
 .debug_info    0x0002d222      0x381 common/libcommon.a(cmd_zmac.o)
 .debug_info    0x0002d5a3      0x38d common/libcommon.a(command.o)
 .debug_info    0x0002d930      0xa5b common/libcommon.a(console.o)
 .debug_info    0x0002e38b      0xd69 common/libcommon.a(dlmalloc.o)
 .debug_info    0x0002f0f4      0x3ae common/libcommon.a(env_common.o)
 .debug_info    0x0002f4a2      0xd5b common/libcommon.a(env_nand.o)
 .debug_info    0x000301fd      0x2cf common/libcommon.a(exports.o)
 .debug_info    0x000304cc     0x1a43 common/libcommon.a(hush.o)
 .debug_info    0x00031f0f     0x1527 common/libcommon.a(image.o)
 .debug_info    0x00033436      0xd90 common/libcommon.a(main.o)
 .debug_info    0x000341c6      0x1aa common/libcommon.a(s_record.o)
 .debug_info    0x00034370      0x585 common/libcommon.a(stdio.o)
 .debug_info    0x000348f5     0x17c3 common/libcommon.a(usb.o)
 .debug_info    0x000360b8     0x1617 common/libcommon.a(usb_storage.o)
 .debug_info    0x000376cf      0x8f8 common/libcommon.a(xyzModem.o)
 .debug_info    0x00037fc7      0xac3 board/nxp2120/dtk/libdtk.a(board.o)
 .debug_info    0x00038a8a      0x80e board/nxp2120/dtk/libdtk.a(logo.o)
 .debug_info    0x00039298      0x10a lib/libgeneric.a(crc16.o)
 .debug_info    0x000393a2      0x264 lib/libgeneric.a(crc32.o)
 .debug_info    0x00039606       0x52 lib/libgeneric.a(ctype.o)
 .debug_info    0x00039658      0x292 lib/libgeneric.a(display_options.o)
 .debug_info    0x000398ea      0x2e8 lib/libgeneric.a(div64.o)
 .debug_info    0x00039bd2      0x3f3 lib/libgeneric.a(gunzip.o)
 .debug_info    0x00039fc5      0x131 lib/libgeneric.a(net_utils.o)
 .debug_info    0x0003a0f6      0xafa lib/libgeneric.a(string.o)
 .debug_info    0x0003abf0       0xb2 lib/libgeneric.a(time.o)
 .debug_info    0x0003aca2      0xc22 lib/libgeneric.a(vsprintf.o)
 .debug_info    0x0003b8c4     0x1083 lib/libgeneric.a(zlib.o)
 .debug_info    0x0003c947      0x2ba arch/arm/cpu/arm1176/nxp2120/libnxp2120.a(timer.o)
 .debug_info    0x0003cc01     0x114c arch/arm/cpu/arm1176/nxp2120/libnxp2120.a(nand.o)
 .debug_info    0x0003dd4d     0x19c5 arch/arm/cpu/arm1176/nxp2120/libnxp2120.a(nand_ecc.o)
 .debug_info    0x0003f712      0x9b4 arch/arm/lib/libarm.a(bootm.o)
 .debug_info    0x000400c6       0xa4 arch/arm/lib/libarm.a(cache.o)
 .debug_info    0x0004016a      0x175 arch/arm/lib/libarm.a(reset.o)
 .debug_info    0x000402df     0x13a6 fs/fat/libfat.a(fat.o)
 .debug_info    0x00041685      0x6c2 disk/libdisk.a(part.o)
 .debug_info    0x00041d47      0x71d disk/libdisk.a(part_dos.o)
 .debug_info    0x00042464     0x170d drivers/mtd/nand/libnand.a(nand_util.o)
 .debug_info    0x00043b71     0x11da drivers/net/libnet.a(dm9000x.o)
 .debug_info    0x00044d4b     0x1208 drivers/usb/host/libusb_host.a(ehci-hcd.o)
 .debug_info    0x00045f53      0x2d3 drivers/usb/host/libusb_host.a(ehci-nxp2120.o)
 .debug_info    0x00046226       0xa8 arch/arm/cpu/arm1176/libarm1176.a(cpu.o)
 .debug_info    0x000462ce      0x41a arch/arm/lib/libarm.a(cache-cp15.o)
 .debug_info    0x000466e8       0xb2 /staff/I15-0248_webcon_u-boot/bootloader/arch/arm/lib/eabi_compat.o
 .debug_info    0x0004679a       0x9d /usr/lib/gcc/arm-generic-linux-gnueabi/4.3.2/libgcc.a(_udivsi3.o)
 .debug_info    0x00046837       0x9d /usr/lib/gcc/arm-generic-linux-gnueabi/4.3.2/libgcc.a(_divsi3.o)
 .debug_info    0x000468d4       0x9d /usr/lib/gcc/arm-generic-linux-gnueabi/4.3.2/libgcc.a(_lshrdi3.o)
 .debug_info    0x00046971       0x9d /usr/lib/gcc/arm-generic-linux-gnueabi/4.3.2/libgcc.a(_ashrdi3.o)
 .debug_info    0x00046a0e       0x9d /usr/lib/gcc/arm-generic-linux-gnueabi/4.3.2/libgcc.a(_ashldi3.o)
 .debug_info    0x00046aab       0x9d /usr/lib/gcc/arm-generic-linux-gnueabi/4.3.2/libgcc.a(_dvmd_lnx.o)

.debug_abbrev   0x00000000     0xd0f9
 .debug_abbrev  0x00000000       0x14 arch/arm/cpu/arm1176/start.o
 .debug_abbrev  0x00000014      0x139 arch/arm/cpu/arm1176/nxp2120/libnxp2120.a(cpu.o)
 .debug_abbrev  0x0000014d      0x1fc arch/arm/cpu/arm1176/nxp2120/libnxp2120.a(nxp2120.o)
 .debug_abbrev  0x00000349       0xe5 arch/arm/cpu/arm1176/nxp2120/libnxp2120.a(wakeup.o)
 .debug_abbrev  0x0000042e       0x14 arch/arm/cpu/arm1176/nxp2120/libnxp2120.a(pm.o)
 .debug_abbrev  0x00000442      0x1f8 arch/arm/cpu/arm1176/nxp2120/libnxp2120.a(serial.o)
 .debug_abbrev  0x0000063a      0x312 arch/arm/cpu/arm1176/nxp2120/libnxp2120.a(sdhc.o)
 .debug_abbrev  0x0000094c      0x2a5 arch/arm/cpu/arm1176/nxp2120/libnxp2120.a(cmd.o)
 .debug_abbrev  0x00000bf1      0x299 arch/arm/cpu/arm1176/nxp2120/libnxp2120.a(cmd_udown.o)
 .debug_abbrev  0x00000e8a      0x11e arch/arm/cpu/arm1176/nxp2120/libnxp2120.a(BootHeader.o)
 .debug_abbrev  0x00000fa8      0x184 arch/arm/cpu/arm1176/nxp2120/libnxp2120.a(nx_alive.o)
 .debug_abbrev  0x0000112c      0x265 arch/arm/cpu/arm1176/nxp2120/libnxp2120.a(nx_clkpwr.o)
 .debug_abbrev  0x00001391      0x2da arch/arm/cpu/arm1176/nxp2120/libnxp2120.a(nx_dpc.o)
 .debug_abbrev  0x0000166b      0x2a9 arch/arm/cpu/arm1176/nxp2120/libnxp2120.a(nx_gpio.o)
 .debug_abbrev  0x00001914      0x1f0 arch/arm/cpu/arm1176/nxp2120/libnxp2120.a(nx_intc.o)
 .debug_abbrev  0x00001b04      0x1d2 arch/arm/cpu/arm1176/nxp2120/libnxp2120.a(nx_mcud.o)
 .debug_abbrev  0x00001cd6      0x1e1 arch/arm/cpu/arm1176/nxp2120/libnxp2120.a(nx_mcus.o)
 .debug_abbrev  0x00001eb7      0x228 arch/arm/cpu/arm1176/nxp2120/libnxp2120.a(nx_mlc.o)
 .debug_abbrev  0x000020df      0x1c8 arch/arm/cpu/arm1176/nxp2120/libnxp2120.a(nx_pwm.o)
 .debug_abbrev  0x000022a7      0x2b2 arch/arm/cpu/arm1176/nxp2120/libnxp2120.a(nx_sdhc.o)
 .debug_abbrev  0x00002559      0x1cb arch/arm/cpu/arm1176/nxp2120/libnxp2120.a(nx_timer.o)
 .debug_abbrev  0x00002724      0x2dd arch/arm/cpu/arm1176/nxp2120/libnxp2120.a(nx_uart.o)
 .debug_abbrev  0x00002a01       0x64 arch/arm/cpu/arm1176/nxp2120/libnxp2120.a(reset.o)
 .debug_abbrev  0x00002a65      0x200 arch/arm/lib/libarm.a(board.o)
 .debug_abbrev  0x00002c65       0xfe arch/arm/lib/libarm.a(interrupts.o)
 .debug_abbrev  0x00002d63      0x37f net/libnet.a(eth.o)
 .debug_abbrev  0x000030e2      0x4b6 net/libnet.a(net.o)
 .debug_abbrev  0x00003598      0x2cc net/libnet.a(nfs.o)
 .debug_abbrev  0x00003864      0x111 net/libnet.a(rarp.o)
 .debug_abbrev  0x00003975      0x234 net/libnet.a(tftp.o)
 .debug_abbrev  0x00003ba9      0x32b net/libnet.a(bootp.o)
 .debug_abbrev  0x00003ed4      0x46c drivers/mmc/libmmc.a(mmc.o)
 .debug_abbrev  0x00004340      0x1f4 drivers/mtd/nand/libnand.a(nand.o)
 .debug_abbrev  0x00004534      0x418 drivers/mtd/nand/libnand.a(nand_base.o)
 .debug_abbrev  0x0000494c      0x3b8 drivers/mtd/nand/libnand.a(nand_bbt.o)
 .debug_abbrev  0x00004d04      0x1ca drivers/mtd/nand/libnand.a(nand_ecc.o)
 .debug_abbrev  0x00004ece       0x8c drivers/mtd/nand/libnand.a(nand_ids.o)
 .debug_abbrev  0x00004f5a      0x1b2 common/libcommon.a(cmd_bdinfo.o)
 .debug_abbrev  0x0000510c       0xdf common/libcommon.a(cmd_boot.o)
 .debug_abbrev  0x000051eb      0x345 common/libcommon.a(cmd_bootm.o)
 .debug_abbrev  0x00005530      0x185 common/libcommon.a(cmd_console.o)
 .debug_abbrev  0x000056b5       0xf7 common/libcommon.a(cmd_echo.o)
 .debug_abbrev  0x000057ac       0xd0 common/libcommon.a(cmd_exit.o)
 .debug_abbrev  0x0000587c      0x258 common/libcommon.a(cmd_falinux.o)
 .debug_abbrev  0x00005ad4      0x128 common/libcommon.a(cmd_fat.o)
 .debug_abbrev  0x00005bfc      0x105 common/libcommon.a(cmd_flash.o)
 .debug_abbrev  0x00005d01       0xd2 common/libcommon.a(cmd_help.o)
 .debug_abbrev  0x00005dd3      0x197 common/libcommon.a(cmd_itest.o)
 .debug_abbrev  0x00005f6a      0x424 common/libcommon.a(cmd_load.o)
 .debug_abbrev  0x0000638e      0x1bf common/libcommon.a(cmd_mem.o)
 .debug_abbrev  0x0000654d       0xd0 common/libcommon.a(cmd_misc.o)
 .debug_abbrev  0x0000661d      0x1e8 common/libcommon.a(cmd_mmc.o)
 .debug_abbrev  0x00006805      0x3af common/libcommon.a(cmd_nand.o)
 .debug_abbrev  0x00006bb4      0x1d0 common/libcommon.a(cmd_net.o)
 .debug_abbrev  0x00006d84      0x272 common/libcommon.a(cmd_nvedit.o)
 .debug_abbrev  0x00006ff6      0x1bf common/libcommon.a(cmd_source.o)
 .debug_abbrev  0x000071b5      0x125 common/libcommon.a(cmd_test.o)
 .debug_abbrev  0x000072da      0x2f1 common/libcommon.a(cmd_usb.o)
 .debug_abbrev  0x000075cb       0xe0 common/libcommon.a(cmd_version.o)
 .debug_abbrev  0x000076ab      0x1ba common/libcommon.a(cmd_ximg.o)
 .debug_abbrev  0x00007865      0x173 common/libcommon.a(cmd_zmac.o)
 .debug_abbrev  0x000079d8      0x1b3 common/libcommon.a(command.o)
 .debug_abbrev  0x00007b8b      0x389 common/libcommon.a(console.o)
 .debug_abbrev  0x00007f14      0x2f0 common/libcommon.a(dlmalloc.o)
 .debug_abbrev  0x00008204      0x1c7 common/libcommon.a(env_common.o)
 .debug_abbrev  0x000083cb      0x2f6 common/libcommon.a(env_nand.o)
 .debug_abbrev  0x000086c1      0x112 common/libcommon.a(exports.o)
 .debug_abbrev  0x000087d3      0x38f common/libcommon.a(hush.o)
 .debug_abbrev  0x00008b62      0x3cd common/libcommon.a(image.o)
 .debug_abbrev  0x00008f2f      0x335 common/libcommon.a(main.o)
 .debug_abbrev  0x00009264      0x10b common/libcommon.a(s_record.o)
 .debug_abbrev  0x0000936f      0x1ee common/libcommon.a(stdio.o)
 .debug_abbrev  0x0000955d      0x36b common/libcommon.a(usb.o)
 .debug_abbrev  0x000098c8      0x319 common/libcommon.a(usb_storage.o)
 .debug_abbrev  0x00009be1      0x29d common/libcommon.a(xyzModem.o)
 .debug_abbrev  0x00009e7e      0x261 board/nxp2120/dtk/libdtk.a(board.o)
 .debug_abbrev  0x0000a0df      0x198 board/nxp2120/dtk/libdtk.a(logo.o)
 .debug_abbrev  0x0000a277       0xb7 lib/libgeneric.a(crc16.o)
 .debug_abbrev  0x0000a32e       0xfc lib/libgeneric.a(crc32.o)
 .debug_abbrev  0x0000a42a       0x4b lib/libgeneric.a(ctype.o)
 .debug_abbrev  0x0000a475      0x11e lib/libgeneric.a(display_options.o)
 .debug_abbrev  0x0000a593      0x16e lib/libgeneric.a(div64.o)
 .debug_abbrev  0x0000a701      0x135 lib/libgeneric.a(gunzip.o)
 .debug_abbrev  0x0000a836       0xdb lib/libgeneric.a(net_utils.o)
 .debug_abbrev  0x0000a911      0x303 lib/libgeneric.a(string.o)
 .debug_abbrev  0x0000ac14       0x73 lib/libgeneric.a(time.o)
 .debug_abbrev  0x0000ac87      0x300 lib/libgeneric.a(vsprintf.o)
 .debug_abbrev  0x0000af87      0x2b6 lib/libgeneric.a(zlib.o)
 .debug_abbrev  0x0000b23d      0x185 arch/arm/cpu/arm1176/nxp2120/libnxp2120.a(timer.o)
 .debug_abbrev  0x0000b3c2      0x208 arch/arm/cpu/arm1176/nxp2120/libnxp2120.a(nand.o)
 .debug_abbrev  0x0000b5ca      0x3bf arch/arm/cpu/arm1176/nxp2120/libnxp2120.a(nand_ecc.o)
 .debug_abbrev  0x0000b989      0x1e8 arch/arm/lib/libarm.a(bootm.o)
 .debug_abbrev  0x0000bb71       0x57 arch/arm/lib/libarm.a(cache.o)
 .debug_abbrev  0x0000bbc8       0xae arch/arm/lib/libarm.a(reset.o)
 .debug_abbrev  0x0000bc76      0x34d fs/fat/libfat.a(fat.o)
 .debug_abbrev  0x0000bfc3      0x234 disk/libdisk.a(part.o)
 .debug_abbrev  0x0000c1f7      0x22d disk/libdisk.a(part_dos.o)
 .debug_abbrev  0x0000c424      0x2e8 drivers/mtd/nand/libnand.a(nand_util.o)
 .debug_abbrev  0x0000c70c      0x303 drivers/net/libnet.a(dm9000x.o)
 .debug_abbrev  0x0000ca0f      0x309 drivers/usb/host/libusb_host.a(ehci-hcd.o)
 .debug_abbrev  0x0000cd18      0x13b drivers/usb/host/libusb_host.a(ehci-nxp2120.o)
 .debug_abbrev  0x0000ce53       0x68 arch/arm/cpu/arm1176/libarm1176.a(cpu.o)
 .debug_abbrev  0x0000cebb      0x158 arch/arm/lib/libarm.a(cache-cp15.o)
 .debug_abbrev  0x0000d013       0x6e /staff/I15-0248_webcon_u-boot/bootloader/arch/arm/lib/eabi_compat.o
 .debug_abbrev  0x0000d081       0x14 /usr/lib/gcc/arm-generic-linux-gnueabi/4.3.2/libgcc.a(_udivsi3.o)
 .debug_abbrev  0x0000d095       0x14 /usr/lib/gcc/arm-generic-linux-gnueabi/4.3.2/libgcc.a(_divsi3.o)
 .debug_abbrev  0x0000d0a9       0x14 /usr/lib/gcc/arm-generic-linux-gnueabi/4.3.2/libgcc.a(_lshrdi3.o)
 .debug_abbrev  0x0000d0bd       0x14 /usr/lib/gcc/arm-generic-linux-gnueabi/4.3.2/libgcc.a(_ashrdi3.o)
 .debug_abbrev  0x0000d0d1       0x14 /usr/lib/gcc/arm-generic-linux-gnueabi/4.3.2/libgcc.a(_ashldi3.o)
 .debug_abbrev  0x0000d0e5       0x14 /usr/lib/gcc/arm-generic-linux-gnueabi/4.3.2/libgcc.a(_dvmd_lnx.o)

.debug_aranges  0x00000000      0xd80
 .debug_aranges
                0x00000000       0x20 arch/arm/cpu/arm1176/start.o
 .debug_aranges
                0x00000020       0x20 arch/arm/cpu/arm1176/nxp2120/libnxp2120.a(cpu.o)
 .debug_aranges
                0x00000040       0x20 arch/arm/cpu/arm1176/nxp2120/libnxp2120.a(nxp2120.o)
 .debug_aranges
                0x00000060       0x20 arch/arm/cpu/arm1176/nxp2120/libnxp2120.a(wakeup.o)
 .debug_aranges
                0x00000080       0x20 arch/arm/cpu/arm1176/nxp2120/libnxp2120.a(pm.o)
 .debug_aranges
                0x000000a0       0x20 arch/arm/cpu/arm1176/nxp2120/libnxp2120.a(serial.o)
 .debug_aranges
                0x000000c0       0x20 arch/arm/cpu/arm1176/nxp2120/libnxp2120.a(sdhc.o)
 .debug_aranges
                0x000000e0       0x20 arch/arm/cpu/arm1176/nxp2120/libnxp2120.a(cmd.o)
 .debug_aranges
                0x00000100       0x20 arch/arm/cpu/arm1176/nxp2120/libnxp2120.a(cmd_udown.o)
 .debug_aranges
                0x00000120       0x20 arch/arm/cpu/arm1176/nxp2120/libnxp2120.a(BootHeader.o)
 .debug_aranges
                0x00000140       0x20 arch/arm/cpu/arm1176/nxp2120/libnxp2120.a(nx_alive.o)
 .debug_aranges
                0x00000160       0x20 arch/arm/cpu/arm1176/nxp2120/libnxp2120.a(nx_clkpwr.o)
 .debug_aranges
                0x00000180       0x20 arch/arm/cpu/arm1176/nxp2120/libnxp2120.a(nx_dpc.o)
 .debug_aranges
                0x000001a0       0x20 arch/arm/cpu/arm1176/nxp2120/libnxp2120.a(nx_gpio.o)
 .debug_aranges
                0x000001c0       0x20 arch/arm/cpu/arm1176/nxp2120/libnxp2120.a(nx_intc.o)
 .debug_aranges
                0x000001e0       0x20 arch/arm/cpu/arm1176/nxp2120/libnxp2120.a(nx_mcud.o)
 .debug_aranges
                0x00000200       0x20 arch/arm/cpu/arm1176/nxp2120/libnxp2120.a(nx_mcus.o)
 .debug_aranges
                0x00000220       0x20 arch/arm/cpu/arm1176/nxp2120/libnxp2120.a(nx_mlc.o)
 .debug_aranges
                0x00000240       0x20 arch/arm/cpu/arm1176/nxp2120/libnxp2120.a(nx_pwm.o)
 .debug_aranges
                0x00000260       0x20 arch/arm/cpu/arm1176/nxp2120/libnxp2120.a(nx_sdhc.o)
 .debug_aranges
                0x00000280       0x20 arch/arm/cpu/arm1176/nxp2120/libnxp2120.a(nx_timer.o)
 .debug_aranges
                0x000002a0       0x20 arch/arm/cpu/arm1176/nxp2120/libnxp2120.a(nx_uart.o)
 .debug_aranges
                0x000002c0       0x20 arch/arm/cpu/arm1176/nxp2120/libnxp2120.a(reset.o)
 .debug_aranges
                0x000002e0       0x20 arch/arm/lib/libarm.a(board.o)
 .debug_aranges
                0x00000300       0x20 arch/arm/lib/libarm.a(interrupts.o)
 .debug_aranges
                0x00000320       0x20 net/libnet.a(eth.o)
 .debug_aranges
                0x00000340       0x20 net/libnet.a(net.o)
 .debug_aranges
                0x00000360       0x20 net/libnet.a(nfs.o)
 .debug_aranges
                0x00000380       0x20 net/libnet.a(rarp.o)
 .debug_aranges
                0x000003a0       0x20 net/libnet.a(tftp.o)
 .debug_aranges
                0x000003c0       0x20 net/libnet.a(bootp.o)
 .debug_aranges
                0x000003e0       0x20 drivers/mmc/libmmc.a(mmc.o)
 .debug_aranges
                0x00000400       0x20 drivers/mtd/nand/libnand.a(nand.o)
 .debug_aranges
                0x00000420       0x20 drivers/mtd/nand/libnand.a(nand_base.o)
 .debug_aranges
                0x00000440       0x20 drivers/mtd/nand/libnand.a(nand_bbt.o)
 .debug_aranges
                0x00000460       0x20 drivers/mtd/nand/libnand.a(nand_ecc.o)
 .debug_aranges
                0x00000480       0x20 common/libcommon.a(cmd_bdinfo.o)
 .debug_aranges
                0x000004a0       0x20 common/libcommon.a(cmd_boot.o)
 .debug_aranges
                0x000004c0       0x20 common/libcommon.a(cmd_bootm.o)
 .debug_aranges
                0x000004e0       0x20 common/libcommon.a(cmd_console.o)
 .debug_aranges
                0x00000500       0x20 common/libcommon.a(cmd_echo.o)
 .debug_aranges
                0x00000520       0x20 common/libcommon.a(cmd_exit.o)
 .debug_aranges
                0x00000540       0x20 common/libcommon.a(cmd_falinux.o)
 .debug_aranges
                0x00000560       0x20 common/libcommon.a(cmd_fat.o)
 .debug_aranges
                0x00000580       0x20 common/libcommon.a(cmd_flash.o)
 .debug_aranges
                0x000005a0       0x20 common/libcommon.a(cmd_help.o)
 .debug_aranges
                0x000005c0       0x20 common/libcommon.a(cmd_itest.o)
 .debug_aranges
                0x000005e0       0x20 common/libcommon.a(cmd_load.o)
 .debug_aranges
                0x00000600       0x20 common/libcommon.a(cmd_mem.o)
 .debug_aranges
                0x00000620       0x20 common/libcommon.a(cmd_misc.o)
 .debug_aranges
                0x00000640       0x20 common/libcommon.a(cmd_mmc.o)
 .debug_aranges
                0x00000660       0x20 common/libcommon.a(cmd_nand.o)
 .debug_aranges
                0x00000680       0x20 common/libcommon.a(cmd_net.o)
 .debug_aranges
                0x000006a0       0x20 common/libcommon.a(cmd_nvedit.o)
 .debug_aranges
                0x000006c0       0x20 common/libcommon.a(cmd_source.o)
 .debug_aranges
                0x000006e0       0x20 common/libcommon.a(cmd_test.o)
 .debug_aranges
                0x00000700       0x20 common/libcommon.a(cmd_usb.o)
 .debug_aranges
                0x00000720       0x20 common/libcommon.a(cmd_version.o)
 .debug_aranges
                0x00000740       0x20 common/libcommon.a(cmd_ximg.o)
 .debug_aranges
                0x00000760       0x20 common/libcommon.a(cmd_zmac.o)
 .debug_aranges
                0x00000780       0x20 common/libcommon.a(command.o)
 .debug_aranges
                0x000007a0       0x20 common/libcommon.a(console.o)
 .debug_aranges
                0x000007c0       0x20 common/libcommon.a(dlmalloc.o)
 .debug_aranges
                0x000007e0       0x20 common/libcommon.a(env_common.o)
 .debug_aranges
                0x00000800       0x20 common/libcommon.a(env_nand.o)
 .debug_aranges
                0x00000820       0x20 common/libcommon.a(exports.o)
 .debug_aranges
                0x00000840       0x20 common/libcommon.a(hush.o)
 .debug_aranges
                0x00000860       0x20 common/libcommon.a(image.o)
 .debug_aranges
                0x00000880       0x20 common/libcommon.a(main.o)
 .debug_aranges
                0x000008a0       0x20 common/libcommon.a(s_record.o)
 .debug_aranges
                0x000008c0       0x20 common/libcommon.a(stdio.o)
 .debug_aranges
                0x000008e0       0x20 common/libcommon.a(usb.o)
 .debug_aranges
                0x00000900       0x20 common/libcommon.a(usb_storage.o)
 .debug_aranges
                0x00000920       0x20 common/libcommon.a(xyzModem.o)
 .debug_aranges
                0x00000940       0x20 board/nxp2120/dtk/libdtk.a(board.o)
 .debug_aranges
                0x00000960       0x20 board/nxp2120/dtk/libdtk.a(logo.o)
 .debug_aranges
                0x00000980       0x20 lib/libgeneric.a(crc16.o)
 .debug_aranges
                0x000009a0       0x20 lib/libgeneric.a(crc32.o)
 .debug_aranges
                0x000009c0       0x20 lib/libgeneric.a(display_options.o)
 .debug_aranges
                0x000009e0       0x20 lib/libgeneric.a(div64.o)
 .debug_aranges
                0x00000a00       0x20 lib/libgeneric.a(gunzip.o)
 .debug_aranges
                0x00000a20       0x20 lib/libgeneric.a(net_utils.o)
 .debug_aranges
                0x00000a40       0x20 lib/libgeneric.a(string.o)
 .debug_aranges
                0x00000a60       0x20 lib/libgeneric.a(time.o)
 .debug_aranges
                0x00000a80       0x20 lib/libgeneric.a(vsprintf.o)
 .debug_aranges
                0x00000aa0       0x20 lib/libgeneric.a(zlib.o)
 .debug_aranges
                0x00000ac0       0x20 arch/arm/cpu/arm1176/nxp2120/libnxp2120.a(timer.o)
 .debug_aranges
                0x00000ae0       0x20 arch/arm/cpu/arm1176/nxp2120/libnxp2120.a(nand.o)
 .debug_aranges
                0x00000b00       0x20 arch/arm/cpu/arm1176/nxp2120/libnxp2120.a(nand_ecc.o)
 .debug_aranges
                0x00000b20       0x20 arch/arm/lib/libarm.a(bootm.o)
 .debug_aranges
                0x00000b40       0x20 arch/arm/lib/libarm.a(cache.o)
 .debug_aranges
                0x00000b60       0x20 arch/arm/lib/libarm.a(reset.o)
 .debug_aranges
                0x00000b80       0x20 fs/fat/libfat.a(fat.o)
 .debug_aranges
                0x00000ba0       0x20 disk/libdisk.a(part.o)
 .debug_aranges
                0x00000bc0       0x20 disk/libdisk.a(part_dos.o)
 .debug_aranges
                0x00000be0       0x20 drivers/mtd/nand/libnand.a(nand_util.o)
 .debug_aranges
                0x00000c00       0x20 drivers/net/libnet.a(dm9000x.o)
 .debug_aranges
                0x00000c20       0x20 drivers/usb/host/libusb_host.a(ehci-hcd.o)
 .debug_aranges
                0x00000c40       0x20 drivers/usb/host/libusb_host.a(ehci-nxp2120.o)
 .debug_aranges
                0x00000c60       0x20 arch/arm/cpu/arm1176/libarm1176.a(cpu.o)
 .debug_aranges
                0x00000c80       0x20 arch/arm/lib/libarm.a(cache-cp15.o)
 .debug_aranges
                0x00000ca0       0x20 /staff/I15-0248_webcon_u-boot/bootloader/arch/arm/lib/eabi_compat.o
 .debug_aranges
                0x00000cc0       0x20 /usr/lib/gcc/arm-generic-linux-gnueabi/4.3.2/libgcc.a(_udivsi3.o)
 .debug_aranges
                0x00000ce0       0x20 /usr/lib/gcc/arm-generic-linux-gnueabi/4.3.2/libgcc.a(_divsi3.o)
 .debug_aranges
                0x00000d00       0x20 /usr/lib/gcc/arm-generic-linux-gnueabi/4.3.2/libgcc.a(_lshrdi3.o)
 .debug_aranges
                0x00000d20       0x20 /usr/lib/gcc/arm-generic-linux-gnueabi/4.3.2/libgcc.a(_ashrdi3.o)
 .debug_aranges
                0x00000d40       0x20 /usr/lib/gcc/arm-generic-linux-gnueabi/4.3.2/libgcc.a(_ashldi3.o)
 .debug_aranges
                0x00000d60       0x20 /usr/lib/gcc/arm-generic-linux-gnueabi/4.3.2/libgcc.a(_dvmd_lnx.o)

.debug_frame    0x00000000     0x8234
 .debug_frame   0x00000000       0x84 arch/arm/cpu/arm1176/nxp2120/libnxp2120.a(cpu.o)
 .debug_frame   0x00000084       0xc0 arch/arm/cpu/arm1176/nxp2120/libnxp2120.a(nxp2120.o)
 .debug_frame   0x00000144       0x2c arch/arm/cpu/arm1176/nxp2120/libnxp2120.a(wakeup.o)
 .debug_frame   0x00000170       0xb0 arch/arm/cpu/arm1176/nxp2120/libnxp2120.a(serial.o)
 .debug_frame   0x00000220       0xa0 arch/arm/cpu/arm1176/nxp2120/libnxp2120.a(sdhc.o)
 .debug_frame   0x000002c0       0x50 arch/arm/cpu/arm1176/nxp2120/libnxp2120.a(cmd.o)
 .debug_frame   0x00000310       0x58 arch/arm/cpu/arm1176/nxp2120/libnxp2120.a(cmd_udown.o)
 .debug_frame   0x00000368       0x44 arch/arm/cpu/arm1176/nxp2120/libnxp2120.a(BootHeader.o)
 .debug_frame   0x000003ac      0x2f0 arch/arm/cpu/arm1176/nxp2120/libnxp2120.a(nx_alive.o)
 .debug_frame   0x0000069c      0x3a8 arch/arm/cpu/arm1176/nxp2120/libnxp2120.a(nx_clkpwr.o)
 .debug_frame   0x00000a44      0x448 arch/arm/cpu/arm1176/nxp2120/libnxp2120.a(nx_dpc.o)
 .debug_frame   0x00000e8c      0x2e8 arch/arm/cpu/arm1176/nxp2120/libnxp2120.a(nx_gpio.o)
 .debug_frame   0x00001174      0x1b4 arch/arm/cpu/arm1176/nxp2120/libnxp2120.a(nx_intc.o)
 .debug_frame   0x00001328      0x628 arch/arm/cpu/arm1176/nxp2120/libnxp2120.a(nx_mcud.o)
 .debug_frame   0x00001950      0x49c arch/arm/cpu/arm1176/nxp2120/libnxp2120.a(nx_mcus.o)
 .debug_frame   0x00001dec      0x550 arch/arm/cpu/arm1176/nxp2120/libnxp2120.a(nx_mlc.o)
 .debug_frame   0x0000233c      0x1c0 arch/arm/cpu/arm1176/nxp2120/libnxp2120.a(nx_pwm.o)
 .debug_frame   0x000024fc      0x5b8 arch/arm/cpu/arm1176/nxp2120/libnxp2120.a(nx_sdhc.o)
 .debug_frame   0x00002ab4      0x290 arch/arm/cpu/arm1176/nxp2120/libnxp2120.a(nx_timer.o)
 .debug_frame   0x00002d44      0x7a4 arch/arm/cpu/arm1176/nxp2120/libnxp2120.a(nx_uart.o)
 .debug_frame   0x000034e8       0x28 arch/arm/cpu/arm1176/nxp2120/libnxp2120.a(reset.o)
 .debug_frame   0x00003510      0x120 arch/arm/lib/libarm.a(board.o)
 .debug_frame   0x00003630      0x110 arch/arm/lib/libarm.a(interrupts.o)
 .debug_frame   0x00003740      0x1d0 net/libnet.a(eth.o)
 .debug_frame   0x00003910      0x294 net/libnet.a(net.o)
 .debug_frame   0x00003ba4      0x26c net/libnet.a(nfs.o)
 .debug_frame   0x00003e10       0x60 net/libnet.a(rarp.o)
 .debug_frame   0x00003e70       0x88 net/libnet.a(tftp.o)
 .debug_frame   0x00003ef8       0xd4 net/libnet.a(bootp.o)
 .debug_frame   0x00003fcc      0x2dc drivers/mmc/libmmc.a(mmc.o)
 .debug_frame   0x000042a8       0x2c drivers/mtd/nand/libnand.a(nand.o)
 .debug_frame   0x000042d4      0x704 drivers/mtd/nand/libnand.a(nand_base.o)
 .debug_frame   0x000049d8      0x260 drivers/mtd/nand/libnand.a(nand_bbt.o)
 .debug_frame   0x00004c38       0x50 drivers/mtd/nand/libnand.a(nand_ecc.o)
 .debug_frame   0x00004c88       0x2c common/libcommon.a(cmd_bdinfo.o)
 .debug_frame   0x00004cb4       0x44 common/libcommon.a(cmd_boot.o)
 .debug_frame   0x00004cf8      0x154 common/libcommon.a(cmd_bootm.o)
 .debug_frame   0x00004e4c       0x34 common/libcommon.a(cmd_console.o)
 .debug_frame   0x00004e80       0x30 common/libcommon.a(cmd_echo.o)
 .debug_frame   0x00004eb0       0x28 common/libcommon.a(cmd_exit.o)
 .debug_frame   0x00004ed8      0x10c common/libcommon.a(cmd_falinux.o)
 .debug_frame   0x00004fe4       0x78 common/libcommon.a(cmd_fat.o)
 .debug_frame   0x0000505c       0x4c common/libcommon.a(cmd_flash.o)
 .debug_frame   0x000050a8       0x2c common/libcommon.a(cmd_help.o)
 .debug_frame   0x000050d4       0x64 common/libcommon.a(cmd_itest.o)
 .debug_frame   0x00005138      0x1bc common/libcommon.a(cmd_load.o)
 .debug_frame   0x000052f4      0x16c common/libcommon.a(cmd_mem.o)
 .debug_frame   0x00005460       0x30 common/libcommon.a(cmd_misc.o)
 .debug_frame   0x00005490       0x50 common/libcommon.a(cmd_mmc.o)
 .debug_frame   0x000054e0       0xcc common/libcommon.a(cmd_nand.o)
 .debug_frame   0x000055ac       0xa0 common/libcommon.a(cmd_net.o)
 .debug_frame   0x0000564c      0x15c common/libcommon.a(cmd_nvedit.o)
 .debug_frame   0x000057a8       0x48 common/libcommon.a(cmd_source.o)
 .debug_frame   0x000057f0       0x54 common/libcommon.a(cmd_test.o)
 .debug_frame   0x00005844      0x174 common/libcommon.a(cmd_usb.o)
 .debug_frame   0x000059b8       0x28 common/libcommon.a(cmd_version.o)
 .debug_frame   0x000059e0       0x38 common/libcommon.a(cmd_ximg.o)
 .debug_frame   0x00005a18       0x30 common/libcommon.a(cmd_zmac.o)
 .debug_frame   0x00005a48       0xa4 common/libcommon.a(command.o)
 .debug_frame   0x00005aec      0x238 common/libcommon.a(console.o)
 .debug_frame   0x00005d24      0x150 common/libcommon.a(dlmalloc.o)
 .debug_frame   0x00005e74       0x88 common/libcommon.a(env_common.o)
 .debug_frame   0x00005efc       0xb4 common/libcommon.a(env_nand.o)
 .debug_frame   0x00005fb0       0x48 common/libcommon.a(exports.o)
 .debug_frame   0x00005ff8      0x30c common/libcommon.a(hush.o)
 .debug_frame   0x00006304      0x21c common/libcommon.a(image.o)
 .debug_frame   0x00006520      0x114 common/libcommon.a(main.o)
 .debug_frame   0x00006634       0x48 common/libcommon.a(s_record.o)
 .debug_frame   0x0000667c       0x90 common/libcommon.a(stdio.o)
 .debug_frame   0x0000670c      0x498 common/libcommon.a(usb.o)
 .debug_frame   0x00006ba4      0x268 common/libcommon.a(usb_storage.o)
 .debug_frame   0x00006e0c      0x10c common/libcommon.a(xyzModem.o)
 .debug_frame   0x00006f18       0x6c board/nxp2120/dtk/libdtk.a(board.o)
 .debug_frame   0x00006f84       0xf8 board/nxp2120/dtk/libdtk.a(logo.o)
 .debug_frame   0x0000707c       0x28 lib/libgeneric.a(crc16.o)
 .debug_frame   0x000070a4       0x58 lib/libgeneric.a(crc32.o)
 .debug_frame   0x000070fc       0x78 lib/libgeneric.a(display_options.o)
 .debug_frame   0x00007174       0x54 lib/libgeneric.a(div64.o)
 .debug_frame   0x000071c8       0x70 lib/libgeneric.a(gunzip.o)
 .debug_frame   0x00007238       0x30 lib/libgeneric.a(net_utils.o)
 .debug_frame   0x00007268      0x218 lib/libgeneric.a(string.o)
 .debug_frame   0x00007480       0x2c lib/libgeneric.a(time.o)
 .debug_frame   0x000074ac      0x178 lib/libgeneric.a(vsprintf.o)
 .debug_frame   0x00007624      0x12c lib/libgeneric.a(zlib.o)
 .debug_frame   0x00007750       0xf0 arch/arm/cpu/arm1176/nxp2120/libnxp2120.a(timer.o)
 .debug_frame   0x00007840       0x80 arch/arm/cpu/arm1176/nxp2120/libnxp2120.a(nand.o)
 .debug_frame   0x000078c0      0x1a0 arch/arm/cpu/arm1176/nxp2120/libnxp2120.a(nand_ecc.o)
 .debug_frame   0x00007a60       0x34 arch/arm/lib/libarm.a(bootm.o)
 .debug_frame   0x00007a94       0x20 arch/arm/lib/libarm.a(cache.o)
 .debug_frame   0x00007ab4       0x28 arch/arm/lib/libarm.a(reset.o)
 .debug_frame   0x00007adc      0x16c fs/fat/libfat.a(fat.o)
 .debug_frame   0x00007c48       0x9c disk/libdisk.a(part.o)
 .debug_frame   0x00007ce4       0xac disk/libdisk.a(part_dos.o)
 .debug_frame   0x00007d90       0x98 drivers/mtd/nand/libnand.a(nand_util.o)
 .debug_frame   0x00007e28      0x1a8 drivers/net/libnet.a(dm9000x.o)
 .debug_frame   0x00007fd0       0xf0 drivers/usb/host/libusb_host.a(ehci-hcd.o)
 .debug_frame   0x000080c0       0x44 drivers/usb/host/libusb_host.a(ehci-nxp2120.o)
 .debug_frame   0x00008104       0x28 arch/arm/cpu/arm1176/libarm1176.a(cpu.o)
 .debug_frame   0x0000812c       0x80 arch/arm/lib/libarm.a(cache-cp15.o)
 .debug_frame   0x000081ac       0x38 /staff/I15-0248_webcon_u-boot/bootloader/arch/arm/lib/eabi_compat.o
 .debug_frame   0x000081e4       0x28 /usr/lib/gcc/arm-generic-linux-gnueabi/4.3.2/libgcc.a(_udivsi3.o)
 .debug_frame   0x0000820c       0x28 /usr/lib/gcc/arm-generic-linux-gnueabi/4.3.2/libgcc.a(_divsi3.o)

.debug_loc      0x00000000    0x2237e
 .debug_loc     0x00000000       0x4a arch/arm/cpu/arm1176/nxp2120/libnxp2120.a(cpu.o)
 .debug_loc     0x0000004a      0x275 arch/arm/cpu/arm1176/nxp2120/libnxp2120.a(nxp2120.o)
 .debug_loc     0x000002bf       0x5b arch/arm/cpu/arm1176/nxp2120/libnxp2120.a(wakeup.o)
 .debug_loc     0x0000031a      0x150 arch/arm/cpu/arm1176/nxp2120/libnxp2120.a(serial.o)
 .debug_loc     0x0000046a      0x6c5 arch/arm/cpu/arm1176/nxp2120/libnxp2120.a(sdhc.o)
 .debug_loc     0x00000b2f      0x176 arch/arm/cpu/arm1176/nxp2120/libnxp2120.a(cmd.o)
 .debug_loc     0x00000ca5      0x36b arch/arm/cpu/arm1176/nxp2120/libnxp2120.a(cmd_udown.o)
 .debug_loc     0x00001010      0x13a arch/arm/cpu/arm1176/nxp2120/libnxp2120.a(BootHeader.o)
 .debug_loc     0x0000114a      0x245 arch/arm/cpu/arm1176/nxp2120/libnxp2120.a(nx_alive.o)
 .debug_loc     0x0000138f      0x3c2 arch/arm/cpu/arm1176/nxp2120/libnxp2120.a(nx_clkpwr.o)
 .debug_loc     0x00001751      0xd93 arch/arm/cpu/arm1176/nxp2120/libnxp2120.a(nx_dpc.o)
 .debug_loc     0x000024e4      0x3ca arch/arm/cpu/arm1176/nxp2120/libnxp2120.a(nx_gpio.o)
 .debug_loc     0x000028ae      0x1e1 arch/arm/cpu/arm1176/nxp2120/libnxp2120.a(nx_intc.o)
 .debug_loc     0x00002a8f      0x508 arch/arm/cpu/arm1176/nxp2120/libnxp2120.a(nx_mcud.o)
 .debug_loc     0x00002f97      0xa84 arch/arm/cpu/arm1176/nxp2120/libnxp2120.a(nx_mcus.o)
 .debug_loc     0x00003a1b     0x10f8 arch/arm/cpu/arm1176/nxp2120/libnxp2120.a(nx_mlc.o)
 .debug_loc     0x00004b13      0x184 arch/arm/cpu/arm1176/nxp2120/libnxp2120.a(nx_pwm.o)
 .debug_loc     0x00004c97      0x548 arch/arm/cpu/arm1176/nxp2120/libnxp2120.a(nx_sdhc.o)
 .debug_loc     0x000051df      0x232 arch/arm/cpu/arm1176/nxp2120/libnxp2120.a(nx_timer.o)
 .debug_loc     0x00005411      0xe3e arch/arm/cpu/arm1176/nxp2120/libnxp2120.a(nx_uart.o)
 .debug_loc     0x0000624f       0x3e arch/arm/cpu/arm1176/nxp2120/libnxp2120.a(reset.o)
 .debug_loc     0x0000628d       0xcb arch/arm/lib/libarm.a(board.o)
 .debug_loc     0x00006358      0x220 arch/arm/lib/libarm.a(interrupts.o)
 .debug_loc     0x00006578      0x57d net/libnet.a(eth.o)
 .debug_loc     0x00006af5      0xbd3 net/libnet.a(net.o)
 .debug_loc     0x000076c8      0x861 net/libnet.a(nfs.o)
 .debug_loc     0x00007f29      0x11c net/libnet.a(rarp.o)
 .debug_loc     0x00008045      0x254 net/libnet.a(tftp.o)
 .debug_loc     0x00008299      0x55f net/libnet.a(bootp.o)
 .debug_loc     0x000087f8      0xad1 drivers/mmc/libmmc.a(mmc.o)
 .debug_loc     0x000092c9       0x2b drivers/mtd/nand/libnand.a(nand.o)
 .debug_loc     0x000092f4     0x2e2f drivers/mtd/nand/libnand.a(nand_base.o)
 .debug_loc     0x0000c123     0x1d1f drivers/mtd/nand/libnand.a(nand_bbt.o)
 .debug_loc     0x0000de42      0x1ab drivers/mtd/nand/libnand.a(nand_ecc.o)
 .debug_loc     0x0000dfed       0x8a common/libcommon.a(cmd_bdinfo.o)
 .debug_loc     0x0000e077      0x14a common/libcommon.a(cmd_boot.o)
 .debug_loc     0x0000e1c1      0x821 common/libcommon.a(cmd_bootm.o)
 .debug_loc     0x0000e9e2       0x77 common/libcommon.a(cmd_console.o)
 .debug_loc     0x0000ea59       0xe1 common/libcommon.a(cmd_echo.o)
 .debug_loc     0x0000eb3a       0xc1 common/libcommon.a(cmd_exit.o)
 .debug_loc     0x0000ebfb      0x336 common/libcommon.a(cmd_falinux.o)
 .debug_loc     0x0000ef31      0x381 common/libcommon.a(cmd_fat.o)
 .debug_loc     0x0000f2b2       0xe7 common/libcommon.a(cmd_flash.o)
 .debug_loc     0x0000f399       0x8d common/libcommon.a(cmd_help.o)
 .debug_loc     0x0000f426      0x2be common/libcommon.a(cmd_itest.o)
 .debug_loc     0x0000f6e4      0x908 common/libcommon.a(cmd_load.o)
 .debug_loc     0x0000ffec      0xcbb common/libcommon.a(cmd_mem.o)
 .debug_loc     0x00010ca7       0xa3 common/libcommon.a(cmd_misc.o)
 .debug_loc     0x00010d4a      0x2f6 common/libcommon.a(cmd_mmc.o)
 .debug_loc     0x00011040      0x845 common/libcommon.a(cmd_nand.o)
 .debug_loc     0x00011885      0x3fc common/libcommon.a(cmd_net.o)
 .debug_loc     0x00011c81      0x87c common/libcommon.a(cmd_nvedit.o)
 .debug_loc     0x000124fd      0x18f common/libcommon.a(cmd_source.o)
 .debug_loc     0x0001268c      0x167 common/libcommon.a(cmd_test.o)
 .debug_loc     0x000127f3      0x9fd common/libcommon.a(cmd_usb.o)
 .debug_loc     0x000131f0       0x77 common/libcommon.a(cmd_version.o)
 .debug_loc     0x00013267      0x1f0 common/libcommon.a(cmd_ximg.o)
 .debug_loc     0x00013457       0x98 common/libcommon.a(cmd_zmac.o)
 .debug_loc     0x000134ef      0x464 common/libcommon.a(command.o)
 .debug_loc     0x00013953      0x5ea common/libcommon.a(console.o)
 .debug_loc     0x00013f3d     0x1268 common/libcommon.a(dlmalloc.o)
 .debug_loc     0x000151a5       0xec common/libcommon.a(env_common.o)
 .debug_loc     0x00015291      0x1a1 common/libcommon.a(env_nand.o)
 .debug_loc     0x00015432       0x1f common/libcommon.a(exports.o)
 .debug_loc     0x00015451     0x11bc common/libcommon.a(hush.o)
 .debug_loc     0x0001660d      0x891 common/libcommon.a(image.o)
 .debug_loc     0x00016e9e      0xf58 common/libcommon.a(main.o)
 .debug_loc     0x00017df6      0x1d7 common/libcommon.a(s_record.o)
 .debug_loc     0x00017fcd       0xfc common/libcommon.a(stdio.o)
 .debug_loc     0x000180c9     0x1363 common/libcommon.a(usb.o)
 .debug_loc     0x0001942c      0xa5b common/libcommon.a(usb_storage.o)
 .debug_loc     0x00019e87      0x521 common/libcommon.a(xyzModem.o)
 .debug_loc     0x0001a3a8      0x168 board/nxp2120/dtk/libdtk.a(board.o)
 .debug_loc     0x0001a510      0xb33 board/nxp2120/dtk/libdtk.a(logo.o)
 .debug_loc     0x0001b043       0x3d lib/libgeneric.a(crc16.o)
 .debug_loc     0x0001b080      0x1a7 lib/libgeneric.a(crc32.o)
 .debug_loc     0x0001b227      0x22f lib/libgeneric.a(display_options.o)
 .debug_loc     0x0001b456      0x171 lib/libgeneric.a(div64.o)
 .debug_loc     0x0001b5c7      0x29a lib/libgeneric.a(gunzip.o)
 .debug_loc     0x0001b861       0x67 lib/libgeneric.a(net_utils.o)
 .debug_loc     0x0001b8c8      0x848 lib/libgeneric.a(string.o)
 .debug_loc     0x0001c110       0x3d lib/libgeneric.a(time.o)
 .debug_loc     0x0001c14d      0xcfc lib/libgeneric.a(vsprintf.o)
 .debug_loc     0x0001ce49     0x19fd lib/libgeneric.a(zlib.o)
 .debug_loc     0x0001e846      0x1be arch/arm/cpu/arm1176/nxp2120/libnxp2120.a(timer.o)
 .debug_loc     0x0001ea04      0x18b arch/arm/cpu/arm1176/nxp2120/libnxp2120.a(nand.o)
 .debug_loc     0x0001eb8f      0xa04 arch/arm/cpu/arm1176/nxp2120/libnxp2120.a(nand_ecc.o)
 .debug_loc     0x0001f593       0x98 arch/arm/lib/libarm.a(bootm.o)
 .debug_loc     0x0001f62b       0x77 arch/arm/lib/libarm.a(reset.o)
 .debug_loc     0x0001f6a2      0xfcd fs/fat/libfat.a(fat.o)
 .debug_loc     0x0002066f      0x1fa disk/libdisk.a(part.o)
 .debug_loc     0x00020869      0x315 disk/libdisk.a(part_dos.o)
 .debug_loc     0x00020b7e      0x734 drivers/mtd/nand/libnand.a(nand_util.o)
 .debug_loc     0x000212b2      0x3ca drivers/net/libnet.a(dm9000x.o)
 .debug_loc     0x0002167c      0xaed drivers/usb/host/libusb_host.a(ehci-hcd.o)
 .debug_loc     0x00022169       0x1f drivers/usb/host/libusb_host.a(ehci-nxp2120.o)
 .debug_loc     0x00022188       0x2b arch/arm/cpu/arm1176/libarm1176.a(cpu.o)
 .debug_loc     0x000221b3      0x182 arch/arm/lib/libarm.a(cache-cp15.o)
 .debug_loc     0x00022335       0x49 /staff/I15-0248_webcon_u-boot/bootloader/arch/arm/lib/eabi_compat.o

.debug_pubnames
                0x00000000     0x8a2c
 .debug_pubnames
                0x00000000       0x84 arch/arm/cpu/arm1176/nxp2120/libnxp2120.a(cpu.o)
 .debug_pubnames
                0x00000084       0x6d arch/arm/cpu/arm1176/nxp2120/libnxp2120.a(nxp2120.o)
 .debug_pubnames
                0x000000f1       0x26 arch/arm/cpu/arm1176/nxp2120/libnxp2120.a(wakeup.o)
 .debug_pubnames
                0x00000117       0x7b arch/arm/cpu/arm1176/nxp2120/libnxp2120.a(serial.o)
 .debug_pubnames
                0x00000192       0x38 arch/arm/cpu/arm1176/nxp2120/libnxp2120.a(sdhc.o)
 .debug_pubnames
                0x000001ca       0x61 arch/arm/cpu/arm1176/nxp2120/libnxp2120.a(cmd.o)
 .debug_pubnames
                0x0000022b       0x58 arch/arm/cpu/arm1176/nxp2120/libnxp2120.a(cmd_udown.o)
 .debug_pubnames
                0x00000283       0x41 arch/arm/cpu/arm1176/nxp2120/libnxp2120.a(BootHeader.o)
 .debug_pubnames
                0x000002c4      0x58a arch/arm/cpu/arm1176/nxp2120/libnxp2120.a(nx_alive.o)
 .debug_pubnames
                0x0000084e      0x76b arch/arm/cpu/arm1176/nxp2120/libnxp2120.a(nx_clkpwr.o)
 .debug_pubnames
                0x00000fb9      0x640 arch/arm/cpu/arm1176/nxp2120/libnxp2120.a(nx_dpc.o)
 .debug_pubnames
                0x000015f9      0x558 arch/arm/cpu/arm1176/nxp2120/libnxp2120.a(nx_gpio.o)
 .debug_pubnames
                0x00001b51      0x30e arch/arm/cpu/arm1176/nxp2120/libnxp2120.a(nx_intc.o)
 .debug_pubnames
                0x00001e5f      0x9d0 arch/arm/cpu/arm1176/nxp2120/libnxp2120.a(nx_mcud.o)
 .debug_pubnames
                0x0000282f      0x76c arch/arm/cpu/arm1176/nxp2120/libnxp2120.a(nx_mcus.o)
 .debug_pubnames
                0x00002f9b      0x934 arch/arm/cpu/arm1176/nxp2120/libnxp2120.a(nx_mlc.o)
 .debug_pubnames
                0x000038cf      0x2ab arch/arm/cpu/arm1176/nxp2120/libnxp2120.a(nx_pwm.o)
 .debug_pubnames
                0x00003b7a      0xa0a arch/arm/cpu/arm1176/nxp2120/libnxp2120.a(nx_sdhc.o)
 .debug_pubnames
                0x00004584      0x4d2 arch/arm/cpu/arm1176/nxp2120/libnxp2120.a(nx_timer.o)
 .debug_pubnames
                0x00004a56      0xc41 arch/arm/cpu/arm1176/nxp2120/libnxp2120.a(nx_uart.o)
 .debug_pubnames
                0x00005697       0x20 arch/arm/cpu/arm1176/nxp2120/libnxp2120.a(reset.o)
 .debug_pubnames
                0x000056b7      0x11f arch/arm/lib/libarm.a(board.o)
 .debug_pubnames
                0x000057d6       0xdf arch/arm/lib/libarm.a(interrupts.o)
 .debug_pubnames
                0x000058b5      0x160 net/libnet.a(eth.o)
 .debug_pubnames
                0x00005a15      0x3ee net/libnet.a(net.o)
 .debug_pubnames
                0x00005e03       0x1f net/libnet.a(nfs.o)
 .debug_pubnames
                0x00005e22       0x2e net/libnet.a(rarp.o)
 .debug_pubnames
                0x00005e50       0x53 net/libnet.a(tftp.o)
 .debug_pubnames
                0x00005ea3       0x82 net/libnet.a(bootp.o)
 .debug_pubnames
                0x00005f25      0x1d6 drivers/mmc/libmmc.a(mmc.o)
 .debug_pubnames
                0x000060fb       0x4a drivers/mtd/nand/libnand.a(nand.o)
 .debug_pubnames
                0x00006145       0x80 drivers/mtd/nand/libnand.a(nand_base.o)
 .debug_pubnames
                0x000061c5       0x60 drivers/mtd/nand/libnand.a(nand_bbt.o)
 .debug_pubnames
                0x00006225       0x3f drivers/mtd/nand/libnand.a(nand_ecc.o)
 .debug_pubnames
                0x00006264       0x38 drivers/mtd/nand/libnand.a(nand_ids.o)
 .debug_pubnames
                0x0000629c       0x3f common/libcommon.a(cmd_bdinfo.o)
 .debug_pubnames
                0x000062db       0x56 common/libcommon.a(cmd_boot.o)
 .debug_pubnames
                0x00006331       0xd9 common/libcommon.a(cmd_bootm.o)
 .debug_pubnames
                0x0000640a       0x3a common/libcommon.a(cmd_console.o)
 .debug_pubnames
                0x00006444       0x34 common/libcommon.a(cmd_echo.o)
 .debug_pubnames
                0x00006478       0x34 common/libcommon.a(cmd_exit.o)
 .debug_pubnames
                0x000064ac       0xc1 common/libcommon.a(cmd_falinux.o)
 .debug_pubnames
                0x0000656d       0x8d common/libcommon.a(cmd_fat.o)
 .debug_pubnames
                0x000065fa       0x86 common/libcommon.a(cmd_flash.o)
 .debug_pubnames
                0x00006680       0x53 common/libcommon.a(cmd_help.o)
 .debug_pubnames
                0x000066d3       0x53 common/libcommon.a(cmd_itest.o)
 .debug_pubnames
                0x00006726      0x1ab common/libcommon.a(cmd_load.o)
 .debug_pubnames
                0x000068d1      0x1d1 common/libcommon.a(cmd_mem.o)
 .debug_pubnames
                0x00006aa2       0x36 common/libcommon.a(cmd_misc.o)
 .debug_pubnames
                0x00006ad8       0x5d common/libcommon.a(cmd_mmc.o)
 .debug_pubnames
                0x00006b35       0x5b common/libcommon.a(cmd_nand.o)
 .debug_pubnames
                0x00006b90       0xe8 common/libcommon.a(cmd_net.o)
 .debug_pubnames
                0x00006c78      0x11c common/libcommon.a(cmd_nvedit.o)
 .debug_pubnames
                0x00006d94       0x43 common/libcommon.a(cmd_source.o)
 .debug_pubnames
                0x00006dd7       0x7a common/libcommon.a(cmd_test.o)
 .debug_pubnames
                0x00006e51      0x158 common/libcommon.a(cmd_usb.o)
 .debug_pubnames
                0x00006fa9       0x3a common/libcommon.a(cmd_version.o)
 .debug_pubnames
                0x00006fe3       0x3e common/libcommon.a(cmd_ximg.o)
 .debug_pubnames
                0x00007021       0x2f common/libcommon.a(cmd_zmac.o)
 .debug_pubnames
                0x00007050       0x61 common/libcommon.a(command.o)
 .debug_pubnames
                0x000070b1      0x147 common/libcommon.a(console.o)
 .debug_pubnames
                0x000071f8       0xfd common/libcommon.a(dlmalloc.o)
 .debug_pubnames
                0x000072f5       0xa3 common/libcommon.a(env_common.o)
 .debug_pubnames
                0x00007398       0x95 common/libcommon.a(env_nand.o)
 .debug_pubnames
                0x0000742d       0x3c common/libcommon.a(exports.o)
 .debug_pubnames
                0x00007469      0x11d common/libcommon.a(hush.o)
 .debug_pubnames
                0x00007586      0x22c common/libcommon.a(image.o)
 .debug_pubnames
                0x000077b2       0xcd common/libcommon.a(main.o)
 .debug_pubnames
                0x0000787f       0x22 common/libcommon.a(s_record.o)
 .debug_pubnames
                0x000078a1       0x96 common/libcommon.a(stdio.o)
 .debug_pubnames
                0x00007937      0x355 common/libcommon.a(usb.o)
 .debug_pubnames
                0x00007c8c      0x166 common/libcommon.a(usb_storage.o)
 .debug_pubnames
                0x00007df2       0xd5 common/libcommon.a(xyzModem.o)
 .debug_pubnames
                0x00007ec7       0x4f board/nxp2120/dtk/libdtk.a(board.o)
 .debug_pubnames
                0x00007f16       0xca board/nxp2120/dtk/libdtk.a(logo.o)
 .debug_pubnames
                0x00007fe0       0x20 lib/libgeneric.a(crc16.o)
 .debug_pubnames
                0x00008000       0x3b lib/libgeneric.a(crc32.o)
 .debug_pubnames
                0x0000803b       0x1d lib/libgeneric.a(ctype.o)
 .debug_pubnames
                0x00008058       0x46 lib/libgeneric.a(display_options.o)
 .debug_pubnames
                0x0000809e       0x2f lib/libgeneric.a(div64.o)
 .debug_pubnames
                0x000080cd       0x3d lib/libgeneric.a(gunzip.o)
 .debug_pubnames
                0x0000810a       0x23 lib/libgeneric.a(net_utils.o)
 .debug_pubnames
                0x0000812d      0x130 lib/libgeneric.a(string.o)
 .debug_pubnames
                0x0000825d       0x1d lib/libgeneric.a(time.o)
 .debug_pubnames
                0x0000827a       0x87 lib/libgeneric.a(vsprintf.o)
 .debug_pubnames
                0x00008301       0xb4 lib/libgeneric.a(zlib.o)
 .debug_pubnames
                0x000083b5       0xb4 arch/arm/cpu/arm1176/nxp2120/libnxp2120.a(timer.o)
 .debug_pubnames
                0x00008469       0x39 arch/arm/cpu/arm1176/nxp2120/libnxp2120.a(nand.o)
 .debug_pubnames
                0x000084a2      0x132 arch/arm/cpu/arm1176/nxp2120/libnxp2120.a(nand_ecc.o)
 .debug_pubnames
                0x000085d4       0x2c arch/arm/lib/libarm.a(bootm.o)
 .debug_pubnames
                0x00008600       0x22 arch/arm/lib/libarm.a(cache.o)
 .debug_pubnames
                0x00008622       0x1f arch/arm/lib/libarm.a(reset.o)
 .debug_pubnames
                0x00008641       0xb9 fs/fat/libfat.a(fat.o)
 .debug_pubnames
                0x000086fa       0x67 disk/libdisk.a(part.o)
 .debug_pubnames
                0x00008761       0x52 disk/libdisk.a(part_dos.o)
 .debug_pubnames
                0x000087b3       0x55 drivers/mtd/nand/libnand.a(nand_util.o)
 .debug_pubnames
                0x00008808       0x5d drivers/net/libnet.a(dm9000x.o)
 .debug_pubnames
                0x00008865       0xaf drivers/usb/host/libusb_host.a(ehci-hcd.o)
 .debug_pubnames
                0x00008914       0x36 drivers/usb/host/libusb_host.a(ehci-nxp2120.o)
 .debug_pubnames
                0x0000894a       0x2b arch/arm/cpu/arm1176/libarm1176.a(cpu.o)
 .debug_pubnames
                0x00008975       0x80 arch/arm/lib/libarm.a(cache-cp15.o)
 .debug_pubnames
                0x000089f5       0x37 /staff/I15-0248_webcon_u-boot/bootloader/arch/arm/lib/eabi_compat.o

.debug_str      0x00000000    0x11e3a
 .debug_str     0x00000000      0x199 arch/arm/cpu/arm1176/nxp2120/libnxp2120.a(cpu.o)
                                0x212 (size before relaxing)
 .debug_str     0x00000199      0xbbb arch/arm/cpu/arm1176/nxp2120/libnxp2120.a(nxp2120.o)
                                0xccc (size before relaxing)
 .debug_str     0x00000d54       0x3a arch/arm/cpu/arm1176/nxp2120/libnxp2120.a(wakeup.o)
                                0x11a (size before relaxing)
 .debug_str     0x00000d8e      0x234 arch/arm/cpu/arm1176/nxp2120/libnxp2120.a(serial.o)
                                0x38b (size before relaxing)
 .debug_str     0x00000fc2      0x55f arch/arm/cpu/arm1176/nxp2120/libnxp2120.a(sdhc.o)
                                0x7a0 (size before relaxing)
 .debug_str     0x00001521      0x75e arch/arm/cpu/arm1176/nxp2120/libnxp2120.a(cmd.o)
                                0xb17 (size before relaxing)
 .debug_str     0x00001c7f      0x332 arch/arm/cpu/arm1176/nxp2120/libnxp2120.a(cmd_udown.o)
                                0x4e9 (size before relaxing)
 .debug_str     0x00001fb1      0x246 arch/arm/cpu/arm1176/nxp2120/libnxp2120.a(BootHeader.o)
                                0x38d (size before relaxing)
 .debug_str     0x000021f7      0xec9 arch/arm/cpu/arm1176/nxp2120/libnxp2120.a(nx_alive.o)
                                0xff4 (size before relaxing)
 .debug_str     0x000030c0      0xa9e arch/arm/cpu/arm1176/nxp2120/libnxp2120.a(nx_clkpwr.o)
                               0x1062 (size before relaxing)
 .debug_str     0x00003b5e      0xeb0 arch/arm/cpu/arm1176/nxp2120/libnxp2120.a(nx_dpc.o)
                               0x14aa (size before relaxing)
 .debug_str     0x00004a0e      0x679 arch/arm/cpu/arm1176/nxp2120/libnxp2120.a(nx_gpio.o)
                                0xb00 (size before relaxing)
 .debug_str     0x00005087      0x3e6 arch/arm/cpu/arm1176/nxp2120/libnxp2120.a(nx_intc.o)
                                0x559 (size before relaxing)
 .debug_str     0x0000546d     0x1011 arch/arm/cpu/arm1176/nxp2120/libnxp2120.a(nx_mcud.o)
                               0x126b (size before relaxing)
 .debug_str     0x0000647e      0xd69 arch/arm/cpu/arm1176/nxp2120/libnxp2120.a(nx_mcus.o)
                               0x1470 (size before relaxing)
 .debug_str     0x000071e7     0x12fa arch/arm/cpu/arm1176/nxp2120/libnxp2120.a(nx_mlc.o)
                               0x14dd (size before relaxing)
 .debug_str     0x000084e1      0x303 arch/arm/cpu/arm1176/nxp2120/libnxp2120.a(nx_pwm.o)
                                0x4c9 (size before relaxing)
 .debug_str     0x000087e4      0xd8c arch/arm/cpu/arm1176/nxp2120/libnxp2120.a(nx_sdhc.o)
                               0x16f8 (size before relaxing)
 .debug_str     0x00009570      0x560 arch/arm/cpu/arm1176/nxp2120/libnxp2120.a(nx_timer.o)
                                0xaa7 (size before relaxing)
 .debug_str     0x00009ad0     0x1035 arch/arm/cpu/arm1176/nxp2120/libnxp2120.a(nx_uart.o)
                               0x198d (size before relaxing)
 .debug_str     0x0000ab05       0x1a arch/arm/cpu/arm1176/nxp2120/libnxp2120.a(reset.o)
                                 0xfb (size before relaxing)
 .debug_str     0x0000ab1f      0x18a arch/arm/lib/libarm.a(board.o)
                                0x2ef (size before relaxing)
 .debug_str     0x0000aca9       0xcc arch/arm/lib/libarm.a(interrupts.o)
                                0x1a2 (size before relaxing)
 .debug_str     0x0000ad75      0x293 net/libnet.a(eth.o)
                                0x400 (size before relaxing)
 .debug_str     0x0000b008      0x5c5 net/libnet.a(net.o)
                                0x82c (size before relaxing)
 .debug_str     0x0000b5cd      0x27c net/libnet.a(nfs.o)
                                0x462 (size before relaxing)
 .debug_str     0x0000b849       0x4c net/libnet.a(rarp.o)
                                0x199 (size before relaxing)
 .debug_str     0x0000b895      0x1db net/libnet.a(tftp.o)
                                0x3a2 (size before relaxing)
 .debug_str     0x0000ba70      0x246 net/libnet.a(bootp.o)
                                0x48e (size before relaxing)
 .debug_str     0x0000bcb6      0x27e drivers/mmc/libmmc.a(mmc.o)
                                0x5b9 (size before relaxing)
 .debug_str     0x0000bf34       0x95 drivers/mtd/nand/libnand.a(nand.o)
                                0x87e (size before relaxing)
 .debug_str     0x0000bfc9      0x729 drivers/mtd/nand/libnand.a(nand_base.o)
                                0xf09 (size before relaxing)
 .debug_str     0x0000c6f2      0x300 drivers/mtd/nand/libnand.a(nand_bbt.o)
                                0xabf (size before relaxing)
 .debug_str     0x0000c9f2       0x8c drivers/mtd/nand/libnand.a(nand_ecc.o)
                                0x4f6 (size before relaxing)
 .debug_str     0x0000ca7e        0xb drivers/mtd/nand/libnand.a(nand_ids.o)
                                0x143 (size before relaxing)
 .debug_str     0x0000ca89       0x6f common/libcommon.a(cmd_bdinfo.o)
                                0x20e (size before relaxing)
 .debug_str     0x0000caf8       0x3f common/libcommon.a(cmd_boot.o)
                                0x167 (size before relaxing)
 .debug_str     0x0000cb37      0x42a common/libcommon.a(cmd_bootm.o)
                                0x68a (size before relaxing)
 .debug_str     0x0000cf61       0x52 common/libcommon.a(cmd_console.o)
                                0x1b0 (size before relaxing)
 .debug_str     0x0000cfb3       0x2b common/libcommon.a(cmd_echo.o)
                                0x13c (size before relaxing)
 .debug_str     0x0000cfde       0x25 common/libcommon.a(cmd_exit.o)
                                0x136 (size before relaxing)
 .debug_str     0x0000d003      0x2b7 common/libcommon.a(cmd_falinux.o)
                                0x4b1 (size before relaxing)
 .debug_str     0x0000d2ba       0x6d common/libcommon.a(cmd_fat.o)
                                0x238 (size before relaxing)
 .debug_str     0x0000d327       0x68 common/libcommon.a(cmd_flash.o)
                                0x17f (size before relaxing)
 .debug_str     0x0000d38f       0x5c common/libcommon.a(cmd_help.o)
                                0x175 (size before relaxing)
 .debug_str     0x0000d3eb       0x8a common/libcommon.a(cmd_itest.o)
                                0x1b1 (size before relaxing)
 .debug_str     0x0000d475      0x445 common/libcommon.a(cmd_load.o)
                                0x6af (size before relaxing)
 .debug_str     0x0000d8ba      0x1eb common/libcommon.a(cmd_mem.o)
                                0x379 (size before relaxing)
 .debug_str     0x0000daa5       0x27 common/libcommon.a(cmd_misc.o)
                                0x14a (size before relaxing)
 .debug_str     0x0000dacc       0x5b common/libcommon.a(cmd_mmc.o)
                                0x319 (size before relaxing)
 .debug_str     0x0000db27       0xfd common/libcommon.a(cmd_nand.o)
                                0x9a9 (size before relaxing)
 .debug_str     0x0000dc24       0xd2 common/libcommon.a(cmd_net.o)
                                0x2cf (size before relaxing)
 .debug_str     0x0000dcf6       0xf3 common/libcommon.a(cmd_nvedit.o)
                                0x34b (size before relaxing)
 .debug_str     0x0000dde9       0x35 common/libcommon.a(cmd_source.o)
                                0x275 (size before relaxing)
 .debug_str     0x0000de1e       0x73 common/libcommon.a(cmd_test.o)
                                0x189 (size before relaxing)
 .debug_str     0x0000de91      0x4a2 common/libcommon.a(cmd_usb.o)
                                0x7bf (size before relaxing)
 .debug_str     0x0000e333       0x2e common/libcommon.a(cmd_version.o)
                                0x14e (size before relaxing)
 .debug_str     0x0000e361       0x2f common/libcommon.a(cmd_ximg.o)
                                0x27d (size before relaxing)
 .debug_str     0x0000e390       0x4f common/libcommon.a(cmd_zmac.o)
                                0x220 (size before relaxing)
 .debug_str     0x0000e3df       0x89 common/libcommon.a(command.o)
                                0x1d4 (size before relaxing)
 .debug_str     0x0000e468      0x14e common/libcommon.a(console.o)
                                0x4f0 (size before relaxing)
 .debug_str     0x0000e5b6      0x2d7 common/libcommon.a(dlmalloc.o)
                                0x4eb (size before relaxing)
 .debug_str     0x0000e88d       0x9b common/libcommon.a(env_common.o)
                                0x238 (size before relaxing)
 .debug_str     0x0000e928       0x79 common/libcommon.a(env_nand.o)
                                0x63a (size before relaxing)
 .debug_str     0x0000e9a1       0x1f common/libcommon.a(exports.o)
                                0x30c (size before relaxing)
 .debug_str     0x0000e9c0      0x4cf common/libcommon.a(hush.o)
                                0x78b (size before relaxing)
 .debug_str     0x0000ee8f      0x2ce common/libcommon.a(image.o)
                                0x725 (size before relaxing)
 .debug_str     0x0000f15d      0x1fb common/libcommon.a(main.o)
                                0x401 (size before relaxing)
 .debug_str     0x0000f358       0x3a common/libcommon.a(s_record.o)
                                0x11b (size before relaxing)
 .debug_str     0x0000f392       0x5f common/libcommon.a(stdio.o)
                                0x283 (size before relaxing)
 .debug_str     0x0000f3f1      0x53a common/libcommon.a(usb.o)
                                0xa36 (size before relaxing)
 .debug_str     0x0000f92b      0x424 common/libcommon.a(usb_storage.o)
                                0x9ab (size before relaxing)
 .debug_str     0x0000fd4f      0x1a3 common/libcommon.a(xyzModem.o)
                                0x2dc (size before relaxing)
 .debug_str     0x0000fef2      0x3e8 board/nxp2120/dtk/libdtk.a(board.o)
                                0xc1b (size before relaxing)
 .debug_str     0x000102da      0x1fd board/nxp2120/dtk/libdtk.a(logo.o)
                                0x33a (size before relaxing)
 .debug_str     0x000104d7       0x52 lib/libgeneric.a(crc16.o)
                                 0xf3 (size before relaxing)
 .debug_str     0x00010529       0x45 lib/libgeneric.a(crc32.o)
                                0x145 (size before relaxing)
 .debug_str     0x0001056e        0x8 lib/libgeneric.a(ctype.o)
                                 0x56 (size before relaxing)
 .debug_str     0x00010576       0x3f lib/libgeneric.a(display_options.o)
                                0x179 (size before relaxing)
 .debug_str     0x000105b5       0x3d lib/libgeneric.a(div64.o)
                                0x155 (size before relaxing)
 .debug_str     0x000105f2       0xdf lib/libgeneric.a(gunzip.o)
                                0x1df (size before relaxing)
 .debug_str     0x000106d1       0x19 lib/libgeneric.a(net_utils.o)
                                 0xff (size before relaxing)
 .debug_str     0x000106ea       0xc3 lib/libgeneric.a(string.o)
                                0x1d1 (size before relaxing)
 .debug_str     0x000107ad        0xc lib/libgeneric.a(time.o)
                                 0xdb (size before relaxing)
 .debug_str     0x000107b9      0x10d lib/libgeneric.a(vsprintf.o)
                                0x2a0 (size before relaxing)
 .debug_str     0x000108c6      0x2be lib/libgeneric.a(zlib.o)
                                0x583 (size before relaxing)
 .debug_str     0x00010b84       0x91 arch/arm/cpu/arm1176/nxp2120/libnxp2120.a(timer.o)
                                0x21d (size before relaxing)
 .debug_str     0x00010c15       0x4c arch/arm/cpu/arm1176/nxp2120/libnxp2120.a(nand.o)
                                0x7eb (size before relaxing)
 .debug_str     0x00010c61      0x209 arch/arm/cpu/arm1176/nxp2120/libnxp2120.a(nand_ecc.o)
                                0xa84 (size before relaxing)
 .debug_str     0x00010e6a       0x20 arch/arm/lib/libarm.a(bootm.o)
                                0x58f (size before relaxing)
 .debug_str     0x00010e8a       0x22 arch/arm/lib/libarm.a(cache.o)
                                 0xed (size before relaxing)
 .debug_str     0x00000000       0x22 arch/arm/lib/libarm.a(reset.o)
                                0x128 (size before relaxing)
 .debug_str     0x00010eac      0x48d fs/fat/libfat.a(fat.o)
                                0x698 (size before relaxing)
 .debug_str     0x00011339       0xfe disk/libdisk.a(part.o)
                                0x321 (size before relaxing)
 .debug_str     0x00011437      0x143 disk/libdisk.a(part_dos.o)
                                0x2f8 (size before relaxing)
 .debug_str     0x0001157a      0x198 drivers/mtd/nand/libnand.a(nand_util.o)
                                0x9c4 (size before relaxing)
 .debug_str     0x00011712      0x2c8 drivers/net/libnet.a(dm9000x.o)
                                0x46b (size before relaxing)
 .debug_str     0x000119da      0x2df drivers/usb/host/libusb_host.a(ehci-hcd.o)
                                0x840 (size before relaxing)
 .debug_str     0x00011cb9       0x6c drivers/usb/host/libusb_host.a(ehci-nxp2120.o)
                                0x242 (size before relaxing)
 .debug_str     0x00011d25       0x5f arch/arm/cpu/arm1176/libarm1176.a(cpu.o)
                                 0xfa (size before relaxing)
 .debug_str     0x00011d84       0x84 arch/arm/lib/libarm.a(cache-cp15.o)
                                0x179 (size before relaxing)
 .debug_str     0x00011e08       0x32 /staff/I15-0248_webcon_u-boot/bootloader/arch/arm/lib/eabi_compat.o
                                 0xfd (size before relaxing)

.comment        0x00000000      0x72c
 .comment       0x00000000       0x12 arch/arm/cpu/arm1176/nxp2120/libnxp2120.a(cpu.o)
 .comment       0x00000012       0x12 arch/arm/cpu/arm1176/nxp2120/libnxp2120.a(nxp2120.o)
 .comment       0x00000024       0x12 arch/arm/cpu/arm1176/nxp2120/libnxp2120.a(wakeup.o)
 .comment       0x00000036       0x12 arch/arm/cpu/arm1176/nxp2120/libnxp2120.a(serial.o)
 .comment       0x00000048       0x12 arch/arm/cpu/arm1176/nxp2120/libnxp2120.a(sdhc.o)
 .comment       0x0000005a       0x12 arch/arm/cpu/arm1176/nxp2120/libnxp2120.a(cmd.o)
 .comment       0x0000006c       0x12 arch/arm/cpu/arm1176/nxp2120/libnxp2120.a(cmd_udown.o)
 .comment       0x0000007e       0x12 arch/arm/cpu/arm1176/nxp2120/libnxp2120.a(BootHeader.o)
 .comment       0x00000090       0x12 arch/arm/cpu/arm1176/nxp2120/libnxp2120.a(nx_alive.o)
 .comment       0x000000a2       0x12 arch/arm/cpu/arm1176/nxp2120/libnxp2120.a(nx_clkpwr.o)
 .comment       0x000000b4       0x12 arch/arm/cpu/arm1176/nxp2120/libnxp2120.a(nx_dpc.o)
 .comment       0x000000c6       0x12 arch/arm/cpu/arm1176/nxp2120/libnxp2120.a(nx_gpio.o)
 .comment       0x000000d8       0x12 arch/arm/cpu/arm1176/nxp2120/libnxp2120.a(nx_intc.o)
 .comment       0x000000ea       0x12 arch/arm/cpu/arm1176/nxp2120/libnxp2120.a(nx_mcud.o)
 .comment       0x000000fc       0x12 arch/arm/cpu/arm1176/nxp2120/libnxp2120.a(nx_mcus.o)
 .comment       0x0000010e       0x12 arch/arm/cpu/arm1176/nxp2120/libnxp2120.a(nx_mlc.o)
 .comment       0x00000120       0x12 arch/arm/cpu/arm1176/nxp2120/libnxp2120.a(nx_pwm.o)
 .comment       0x00000132       0x12 arch/arm/cpu/arm1176/nxp2120/libnxp2120.a(nx_sdhc.o)
 .comment       0x00000144       0x12 arch/arm/cpu/arm1176/nxp2120/libnxp2120.a(nx_timer.o)
 .comment       0x00000156       0x12 arch/arm/cpu/arm1176/nxp2120/libnxp2120.a(nx_uart.o)
 .comment       0x00000168       0x12 arch/arm/cpu/arm1176/nxp2120/libnxp2120.a(reset.o)
 .comment       0x0000017a       0x12 arch/arm/lib/libarm.a(board.o)
 .comment       0x0000018c       0x12 arch/arm/lib/libarm.a(interrupts.o)
 .comment       0x0000019e       0x12 net/libnet.a(eth.o)
 .comment       0x000001b0       0x12 net/libnet.a(net.o)
 .comment       0x000001c2       0x12 net/libnet.a(nfs.o)
 .comment       0x000001d4       0x12 net/libnet.a(rarp.o)
 .comment       0x000001e6       0x12 net/libnet.a(tftp.o)
 .comment       0x000001f8       0x12 net/libnet.a(bootp.o)
 .comment       0x0000020a       0x12 drivers/mmc/libmmc.a(mmc.o)
 .comment       0x0000021c       0x12 drivers/mtd/nand/libnand.a(nand.o)
 .comment       0x0000022e       0x12 drivers/mtd/nand/libnand.a(nand_base.o)
 .comment       0x00000240       0x12 drivers/mtd/nand/libnand.a(nand_bbt.o)
 .comment       0x00000252       0x12 drivers/mtd/nand/libnand.a(nand_ecc.o)
 .comment       0x00000264       0x12 drivers/mtd/nand/libnand.a(nand_ids.o)
 .comment       0x00000276       0x12 common/libcommon.a(cmd_bdinfo.o)
 .comment       0x00000288       0x12 common/libcommon.a(cmd_boot.o)
 .comment       0x0000029a       0x12 common/libcommon.a(cmd_bootm.o)
 .comment       0x000002ac       0x12 common/libcommon.a(cmd_console.o)
 .comment       0x000002be       0x12 common/libcommon.a(cmd_echo.o)
 .comment       0x000002d0       0x12 common/libcommon.a(cmd_exit.o)
 .comment       0x000002e2       0x12 common/libcommon.a(cmd_falinux.o)
 .comment       0x000002f4       0x12 common/libcommon.a(cmd_fat.o)
 .comment       0x00000306       0x12 common/libcommon.a(cmd_flash.o)
 .comment       0x00000318       0x12 common/libcommon.a(cmd_help.o)
 .comment       0x0000032a       0x12 common/libcommon.a(cmd_itest.o)
 .comment       0x0000033c       0x12 common/libcommon.a(cmd_load.o)
 .comment       0x0000034e       0x12 common/libcommon.a(cmd_mem.o)
 .comment       0x00000360       0x12 common/libcommon.a(cmd_misc.o)
 .comment       0x00000372       0x12 common/libcommon.a(cmd_mmc.o)
 .comment       0x00000384       0x12 common/libcommon.a(cmd_nand.o)
 .comment       0x00000396       0x12 common/libcommon.a(cmd_net.o)
 .comment       0x000003a8       0x12 common/libcommon.a(cmd_nvedit.o)
 .comment       0x000003ba       0x12 common/libcommon.a(cmd_source.o)
 .comment       0x000003cc       0x12 common/libcommon.a(cmd_test.o)
 .comment       0x000003de       0x12 common/libcommon.a(cmd_usb.o)
 .comment       0x000003f0       0x12 common/libcommon.a(cmd_version.o)
 .comment       0x00000402       0x12 common/libcommon.a(cmd_ximg.o)
 .comment       0x00000414       0x12 common/libcommon.a(cmd_zmac.o)
 .comment       0x00000426       0x12 common/libcommon.a(command.o)
 .comment       0x00000438       0x12 common/libcommon.a(console.o)
 .comment       0x0000044a       0x12 common/libcommon.a(dlmalloc.o)
 .comment       0x0000045c       0x12 common/libcommon.a(env_common.o)
 .comment       0x0000046e       0x12 common/libcommon.a(env_nand.o)
 .comment       0x00000480       0x12 common/libcommon.a(exports.o)
 .comment       0x00000492       0x12 common/libcommon.a(hush.o)
 .comment       0x000004a4       0x12 common/libcommon.a(image.o)
 .comment       0x000004b6       0x12 common/libcommon.a(main.o)
 .comment       0x000004c8       0x12 common/libcommon.a(s_record.o)
 .comment       0x000004da       0x12 common/libcommon.a(stdio.o)
 .comment       0x000004ec       0x12 common/libcommon.a(usb.o)
 .comment       0x000004fe       0x12 common/libcommon.a(usb_storage.o)
 .comment       0x00000510       0x12 common/libcommon.a(xyzModem.o)
 .comment       0x00000522       0x12 board/nxp2120/dtk/libdtk.a(board.o)
 .comment       0x00000534       0x12 board/nxp2120/dtk/libdtk.a(logo.o)
 .comment       0x00000546       0x12 lib/libgeneric.a(crc16.o)
 .comment       0x00000558       0x12 lib/libgeneric.a(crc32.o)
 .comment       0x0000056a       0x12 lib/libgeneric.a(ctype.o)
 .comment       0x0000057c       0x12 lib/libgeneric.a(display_options.o)
 .comment       0x0000058e       0x12 lib/libgeneric.a(div64.o)
 .comment       0x000005a0       0x12 lib/libgeneric.a(gunzip.o)
 .comment       0x000005b2       0x12 lib/libgeneric.a(net_utils.o)
 .comment       0x000005c4       0x12 lib/libgeneric.a(string.o)
 .comment       0x000005d6       0x12 lib/libgeneric.a(time.o)
 .comment       0x000005e8       0x12 lib/libgeneric.a(vsprintf.o)
 .comment       0x000005fa       0x12 lib/libgeneric.a(zlib.o)
 .comment       0x0000060c       0x12 arch/arm/cpu/arm1176/nxp2120/libnxp2120.a(timer.o)
 .comment       0x0000061e       0x12 arch/arm/cpu/arm1176/nxp2120/libnxp2120.a(nand.o)
 .comment       0x00000630       0x12 arch/arm/cpu/arm1176/nxp2120/libnxp2120.a(nand_ecc.o)
 .comment       0x00000642       0x12 arch/arm/lib/libarm.a(bootm.o)
 .comment       0x00000654       0x12 arch/arm/lib/libarm.a(cache.o)
 .comment       0x00000666       0x12 arch/arm/lib/libarm.a(reset.o)
 .comment       0x00000678       0x12 fs/fat/libfat.a(fat.o)
 .comment       0x0000068a       0x12 disk/libdisk.a(part.o)
 .comment       0x0000069c       0x12 disk/libdisk.a(part_dos.o)
 .comment       0x000006ae       0x12 drivers/mtd/nand/libnand.a(nand_util.o)
 .comment       0x000006c0       0x12 drivers/net/libnet.a(dm9000x.o)
 .comment       0x000006d2       0x12 drivers/usb/host/libusb_host.a(ehci-hcd.o)
 .comment       0x000006e4       0x12 drivers/usb/host/libusb_host.a(ehci-nxp2120.o)
 .comment       0x000006f6       0x12 arch/arm/cpu/arm1176/libarm1176.a(cpu.o)
 .comment       0x00000708       0x12 arch/arm/lib/libarm.a(cache-cp15.o)
 .comment       0x0000071a       0x12 /staff/I15-0248_webcon_u-boot/bootloader/arch/arm/lib/eabi_compat.o

.note.GNU-stack
                0x00000000        0x0
 .note.GNU-stack
                0x00000000        0x0 arch/arm/cpu/arm1176/nxp2120/libnxp2120.a(cpu.o)
 .note.GNU-stack
                0x00000000        0x0 arch/arm/cpu/arm1176/nxp2120/libnxp2120.a(nxp2120.o)
 .note.GNU-stack
                0x00000000        0x0 arch/arm/cpu/arm1176/nxp2120/libnxp2120.a(wakeup.o)
 .note.GNU-stack
                0x00000000        0x0 arch/arm/cpu/arm1176/nxp2120/libnxp2120.a(serial.o)
 .note.GNU-stack
                0x00000000        0x0 arch/arm/cpu/arm1176/nxp2120/libnxp2120.a(sdhc.o)
 .note.GNU-stack
                0x00000000        0x0 arch/arm/cpu/arm1176/nxp2120/libnxp2120.a(cmd.o)
 .note.GNU-stack
                0x00000000        0x0 arch/arm/cpu/arm1176/nxp2120/libnxp2120.a(cmd_udown.o)
 .note.GNU-stack
                0x00000000        0x0 arch/arm/cpu/arm1176/nxp2120/libnxp2120.a(BootHeader.o)
 .note.GNU-stack
                0x00000000        0x0 arch/arm/cpu/arm1176/nxp2120/libnxp2120.a(nx_alive.o)
 .note.GNU-stack
                0x00000000        0x0 arch/arm/cpu/arm1176/nxp2120/libnxp2120.a(nx_clkpwr.o)
 .note.GNU-stack
                0x00000000        0x0 arch/arm/cpu/arm1176/nxp2120/libnxp2120.a(nx_dpc.o)
 .note.GNU-stack
                0x00000000        0x0 arch/arm/cpu/arm1176/nxp2120/libnxp2120.a(nx_gpio.o)
 .note.GNU-stack
                0x00000000        0x0 arch/arm/cpu/arm1176/nxp2120/libnxp2120.a(nx_intc.o)
 .note.GNU-stack
                0x00000000        0x0 arch/arm/cpu/arm1176/nxp2120/libnxp2120.a(nx_mcud.o)
 .note.GNU-stack
                0x00000000        0x0 arch/arm/cpu/arm1176/nxp2120/libnxp2120.a(nx_mcus.o)
 .note.GNU-stack
                0x00000000        0x0 arch/arm/cpu/arm1176/nxp2120/libnxp2120.a(nx_mlc.o)
 .note.GNU-stack
                0x00000000        0x0 arch/arm/cpu/arm1176/nxp2120/libnxp2120.a(nx_pwm.o)
 .note.GNU-stack
                0x00000000        0x0 arch/arm/cpu/arm1176/nxp2120/libnxp2120.a(nx_sdhc.o)
 .note.GNU-stack
                0x00000000        0x0 arch/arm/cpu/arm1176/nxp2120/libnxp2120.a(nx_timer.o)
 .note.GNU-stack
                0x00000000        0x0 arch/arm/cpu/arm1176/nxp2120/libnxp2120.a(nx_uart.o)
 .note.GNU-stack
                0x00000000        0x0 arch/arm/cpu/arm1176/nxp2120/libnxp2120.a(reset.o)
 .note.GNU-stack
                0x00000000        0x0 arch/arm/lib/libarm.a(board.o)
 .note.GNU-stack
                0x00000000        0x0 arch/arm/lib/libarm.a(interrupts.o)
 .note.GNU-stack
                0x00000000        0x0 net/libnet.a(eth.o)
 .note.GNU-stack
                0x00000000        0x0 net/libnet.a(net.o)
 .note.GNU-stack
                0x00000000        0x0 net/libnet.a(nfs.o)
 .note.GNU-stack
                0x00000000        0x0 net/libnet.a(rarp.o)
 .note.GNU-stack
                0x00000000        0x0 net/libnet.a(tftp.o)
 .note.GNU-stack
                0x00000000        0x0 net/libnet.a(bootp.o)
 .note.GNU-stack
                0x00000000        0x0 drivers/mmc/libmmc.a(mmc.o)
 .note.GNU-stack
                0x00000000        0x0 drivers/mtd/nand/libnand.a(nand.o)
 .note.GNU-stack
                0x00000000        0x0 drivers/mtd/nand/libnand.a(nand_base.o)
 .note.GNU-stack
                0x00000000        0x0 drivers/mtd/nand/libnand.a(nand_bbt.o)
 .note.GNU-stack
                0x00000000        0x0 drivers/mtd/nand/libnand.a(nand_ecc.o)
 .note.GNU-stack
                0x00000000        0x0 drivers/mtd/nand/libnand.a(nand_ids.o)
 .note.GNU-stack
                0x00000000        0x0 common/libcommon.a(cmd_bdinfo.o)
 .note.GNU-stack
                0x00000000        0x0 common/libcommon.a(cmd_boot.o)
 .note.GNU-stack
                0x00000000        0x0 common/libcommon.a(cmd_bootm.o)
 .note.GNU-stack
                0x00000000        0x0 common/libcommon.a(cmd_console.o)
 .note.GNU-stack
                0x00000000        0x0 common/libcommon.a(cmd_echo.o)
 .note.GNU-stack
                0x00000000        0x0 common/libcommon.a(cmd_exit.o)
 .note.GNU-stack
                0x00000000        0x0 common/libcommon.a(cmd_falinux.o)
 .note.GNU-stack
                0x00000000        0x0 common/libcommon.a(cmd_fat.o)
 .note.GNU-stack
                0x00000000        0x0 common/libcommon.a(cmd_flash.o)
 .note.GNU-stack
                0x00000000        0x0 common/libcommon.a(cmd_help.o)
 .note.GNU-stack
                0x00000000        0x0 common/libcommon.a(cmd_itest.o)
 .note.GNU-stack
                0x00000000        0x0 common/libcommon.a(cmd_load.o)
 .note.GNU-stack
                0x00000000        0x0 common/libcommon.a(cmd_mem.o)
 .note.GNU-stack
                0x00000000        0x0 common/libcommon.a(cmd_misc.o)
 .note.GNU-stack
                0x00000000        0x0 common/libcommon.a(cmd_mmc.o)
 .note.GNU-stack
                0x00000000        0x0 common/libcommon.a(cmd_nand.o)
 .note.GNU-stack
                0x00000000        0x0 common/libcommon.a(cmd_net.o)
 .note.GNU-stack
                0x00000000        0x0 common/libcommon.a(cmd_nvedit.o)
 .note.GNU-stack
                0x00000000        0x0 common/libcommon.a(cmd_source.o)
 .note.GNU-stack
                0x00000000        0x0 common/libcommon.a(cmd_test.o)
 .note.GNU-stack
                0x00000000        0x0 common/libcommon.a(cmd_usb.o)
 .note.GNU-stack
                0x00000000        0x0 common/libcommon.a(cmd_version.o)
 .note.GNU-stack
                0x00000000        0x0 common/libcommon.a(cmd_ximg.o)
 .note.GNU-stack
                0x00000000        0x0 common/libcommon.a(cmd_zmac.o)
 .note.GNU-stack
                0x00000000        0x0 common/libcommon.a(command.o)
 .note.GNU-stack
                0x00000000        0x0 common/libcommon.a(console.o)
 .note.GNU-stack
                0x00000000        0x0 common/libcommon.a(dlmalloc.o)
 .note.GNU-stack
                0x00000000        0x0 common/libcommon.a(env_common.o)
 .note.GNU-stack
                0x00000000        0x0 common/libcommon.a(env_nand.o)
 .note.GNU-stack
                0x00000000        0x0 common/libcommon.a(exports.o)
 .note.GNU-stack
                0x00000000        0x0 common/libcommon.a(hush.o)
 .note.GNU-stack
                0x00000000        0x0 common/libcommon.a(image.o)
 .note.GNU-stack
                0x00000000        0x0 common/libcommon.a(main.o)
 .note.GNU-stack
                0x00000000        0x0 common/libcommon.a(s_record.o)
 .note.GNU-stack
                0x00000000        0x0 common/libcommon.a(stdio.o)
 .note.GNU-stack
                0x00000000        0x0 common/libcommon.a(usb.o)
 .note.GNU-stack
                0x00000000        0x0 common/libcommon.a(usb_storage.o)
 .note.GNU-stack
                0x00000000        0x0 common/libcommon.a(xyzModem.o)
 .note.GNU-stack
                0x00000000        0x0 board/nxp2120/dtk/libdtk.a(board.o)
 .note.GNU-stack
                0x00000000        0x0 board/nxp2120/dtk/libdtk.a(logo.o)
 .note.GNU-stack
                0x00000000        0x0 lib/libgeneric.a(crc16.o)
 .note.GNU-stack
                0x00000000        0x0 lib/libgeneric.a(crc32.o)
 .note.GNU-stack
                0x00000000        0x0 lib/libgeneric.a(ctype.o)
 .note.GNU-stack
                0x00000000        0x0 lib/libgeneric.a(display_options.o)
 .note.GNU-stack
                0x00000000        0x0 lib/libgeneric.a(div64.o)
 .note.GNU-stack
                0x00000000        0x0 lib/libgeneric.a(gunzip.o)
 .note.GNU-stack
                0x00000000        0x0 lib/libgeneric.a(net_utils.o)
 .note.GNU-stack
                0x00000000        0x0 lib/libgeneric.a(string.o)
 .note.GNU-stack
                0x00000000        0x0 lib/libgeneric.a(time.o)
 .note.GNU-stack
                0x00000000        0x0 lib/libgeneric.a(vsprintf.o)
 .note.GNU-stack
                0x00000000        0x0 lib/libgeneric.a(zlib.o)
 .note.GNU-stack
                0x00000000        0x0 arch/arm/cpu/arm1176/nxp2120/libnxp2120.a(timer.o)
 .note.GNU-stack
                0x00000000        0x0 arch/arm/cpu/arm1176/nxp2120/libnxp2120.a(nand.o)
 .note.GNU-stack
                0x00000000        0x0 arch/arm/cpu/arm1176/nxp2120/libnxp2120.a(nand_ecc.o)
 .note.GNU-stack
                0x00000000        0x0 arch/arm/lib/libarm.a(bootm.o)
 .note.GNU-stack
                0x00000000        0x0 arch/arm/lib/libarm.a(cache.o)
 .note.GNU-stack
                0x00000000        0x0 arch/arm/lib/libarm.a(reset.o)
 .note.GNU-stack
                0x00000000        0x0 fs/fat/libfat.a(fat.o)
 .note.GNU-stack
                0x00000000        0x0 disk/libdisk.a(part.o)
 .note.GNU-stack
                0x00000000        0x0 disk/libdisk.a(part_dos.o)
 .note.GNU-stack
                0x00000000        0x0 drivers/mtd/nand/libnand.a(nand_util.o)
 .note.GNU-stack
                0x00000000        0x0 drivers/net/libnet.a(dm9000x.o)
 .note.GNU-stack
                0x00000000        0x0 drivers/usb/host/libusb_host.a(ehci-hcd.o)
 .note.GNU-stack
                0x00000000        0x0 drivers/usb/host/libusb_host.a(ehci-nxp2120.o)
 .note.GNU-stack
                0x00000000        0x0 arch/arm/cpu/arm1176/libarm1176.a(cpu.o)
 .note.GNU-stack
                0x00000000        0x0 arch/arm/lib/libarm.a(cache-cp15.o)
 .note.GNU-stack
                0x00000000        0x0 /staff/I15-0248_webcon_u-boot/bootloader/arch/arm/lib/eabi_compat.o
 .note.GNU-stack
                0x00000000        0x0 /usr/lib/gcc/arm-generic-linux-gnueabi/4.3.2/libgcc.a(_udivsi3.o)
 .note.GNU-stack
                0x00000000        0x0 /usr/lib/gcc/arm-generic-linux-gnueabi/4.3.2/libgcc.a(_divsi3.o)
 .note.GNU-stack
                0x00000000        0x0 /usr/lib/gcc/arm-generic-linux-gnueabi/4.3.2/libgcc.a(_lshrdi3.o)
 .note.GNU-stack
                0x00000000        0x0 /usr/lib/gcc/arm-generic-linux-gnueabi/4.3.2/libgcc.a(_ashrdi3.o)
 .note.GNU-stack
                0x00000000        0x0 /usr/lib/gcc/arm-generic-linux-gnueabi/4.3.2/libgcc.a(_ashldi3.o)
 .note.GNU-stack
                0x00000000        0x0 /usr/lib/gcc/arm-generic-linux-gnueabi/4.3.2/libgcc.a(_dvmd_lnx.o)

.debug_ranges   0x00000000     0x3580
 .debug_ranges  0x00000000      0x140 arch/arm/cpu/arm1176/nxp2120/libnxp2120.a(nxp2120.o)
 .debug_ranges  0x00000140       0x30 arch/arm/cpu/arm1176/nxp2120/libnxp2120.a(wakeup.o)
 .debug_ranges  0x00000170       0x30 arch/arm/cpu/arm1176/nxp2120/libnxp2120.a(serial.o)
 .debug_ranges  0x000001a0      0x338 arch/arm/cpu/arm1176/nxp2120/libnxp2120.a(sdhc.o)
 .debug_ranges  0x000004d8       0x70 arch/arm/cpu/arm1176/nxp2120/libnxp2120.a(cmd.o)
 .debug_ranges  0x00000548      0x140 arch/arm/cpu/arm1176/nxp2120/libnxp2120.a(cmd_udown.o)
 .debug_ranges  0x00000688       0x68 arch/arm/cpu/arm1176/nxp2120/libnxp2120.a(nx_dpc.o)
 .debug_ranges  0x000006f0      0x328 arch/arm/cpu/arm1176/nxp2120/libnxp2120.a(nx_uart.o)
 .debug_ranges  0x00000a18       0x18 arch/arm/lib/libarm.a(board.o)
 .debug_ranges  0x00000a30       0x68 net/libnet.a(eth.o)
 .debug_ranges  0x00000a98      0x238 net/libnet.a(net.o)
 .debug_ranges  0x00000cd0       0x48 net/libnet.a(nfs.o)
 .debug_ranges  0x00000d18       0x30 net/libnet.a(tftp.o)
 .debug_ranges  0x00000d48      0x188 net/libnet.a(bootp.o)
 .debug_ranges  0x00000ed0      0x228 drivers/mmc/libmmc.a(mmc.o)
 .debug_ranges  0x000010f8       0x48 drivers/mtd/nand/libnand.a(nand.o)
 .debug_ranges  0x00001140      0x2b8 drivers/mtd/nand/libnand.a(nand_base.o)
 .debug_ranges  0x000013f8      0x220 drivers/mtd/nand/libnand.a(nand_bbt.o)
 .debug_ranges  0x00001618       0x38 common/libcommon.a(cmd_bdinfo.o)
 .debug_ranges  0x00001650       0xb8 common/libcommon.a(cmd_bootm.o)
 .debug_ranges  0x00001708       0x38 common/libcommon.a(cmd_falinux.o)
 .debug_ranges  0x00001740       0x18 common/libcommon.a(cmd_itest.o)
 .debug_ranges  0x00001758      0x2a8 common/libcommon.a(cmd_load.o)
 .debug_ranges  0x00001a00       0x38 common/libcommon.a(cmd_mem.o)
 .debug_ranges  0x00001a38       0xd0 common/libcommon.a(cmd_nand.o)
 .debug_ranges  0x00001b08       0x50 common/libcommon.a(cmd_nvedit.o)
 .debug_ranges  0x00001b58       0x48 common/libcommon.a(cmd_usb.o)
 .debug_ranges  0x00001ba0       0x38 common/libcommon.a(command.o)
 .debug_ranges  0x00001bd8       0xf0 common/libcommon.a(dlmalloc.o)
 .debug_ranges  0x00001cc8       0x30 common/libcommon.a(env_common.o)
 .debug_ranges  0x00001cf8       0x68 common/libcommon.a(env_nand.o)
 .debug_ranges  0x00001d60      0x430 common/libcommon.a(hush.o)
 .debug_ranges  0x00002190       0xb8 common/libcommon.a(image.o)
 .debug_ranges  0x00002248      0x230 common/libcommon.a(main.o)
 .debug_ranges  0x00002478       0x88 common/libcommon.a(stdio.o)
 .debug_ranges  0x00002500       0x50 common/libcommon.a(usb.o)
 .debug_ranges  0x00002550       0xf0 common/libcommon.a(usb_storage.o)
 .debug_ranges  0x00002640       0x18 common/libcommon.a(xyzModem.o)
 .debug_ranges  0x00002658       0xb0 board/nxp2120/dtk/libdtk.a(board.o)
 .debug_ranges  0x00002708       0x18 lib/libgeneric.a(crc32.o)
 .debug_ranges  0x00002720       0x48 lib/libgeneric.a(div64.o)
 .debug_ranges  0x00002768       0x18 lib/libgeneric.a(net_utils.o)
 .debug_ranges  0x00002780       0xb0 lib/libgeneric.a(string.o)
 .debug_ranges  0x00002830      0x250 lib/libgeneric.a(vsprintf.o)
 .debug_ranges  0x00002a80       0x18 lib/libgeneric.a(zlib.o)
 .debug_ranges  0x00002a98       0xa0 arch/arm/cpu/arm1176/nxp2120/libnxp2120.a(nand_ecc.o)
 .debug_ranges  0x00002b38       0x70 arch/arm/lib/libarm.a(bootm.o)
 .debug_ranges  0x00002ba8      0x290 fs/fat/libfat.a(fat.o)
 .debug_ranges  0x00002e38       0x50 disk/libdisk.a(part_dos.o)
 .debug_ranges  0x00002e88       0xc8 drivers/mtd/nand/libnand.a(nand_util.o)
 .debug_ranges  0x00002f50      0x4e8 drivers/net/libnet.a(dm9000x.o)
 .debug_ranges  0x00003438       0x58 drivers/usb/host/libusb_host.a(ehci-hcd.o)
 .debug_ranges  0x00003490       0x30 drivers/usb/host/libusb_host.a(ehci-nxp2120.o)
 .debug_ranges  0x000034c0       0xc0 arch/arm/lib/libarm.a(cache-cp15.o)
